
003Add.elf:     file format elf32-littlearm

Sections:
Idx Name          Size      VMA       LMA       File off  Algn
  0 .isr_vector   000001a8  08000000  08000000  00010000  2**0
                  CONTENTS, ALLOC, LOAD, READONLY, DATA
  1 .text         000010dc  080001b0  080001b0  000101b0  2**4
                  CONTENTS, ALLOC, LOAD, READONLY, CODE
  2 .rodata       000000a8  0800128c  0800128c  0001128c  2**2
                  CONTENTS, ALLOC, LOAD, READONLY, DATA
  3 .ARM.extab    00000000  08001334  08001334  0002006c  2**0
                  CONTENTS
  4 .ARM          00000000  08001334  08001334  0002006c  2**0
                  CONTENTS
  5 .preinit_array 00000000  08001334  08001334  0002006c  2**0
                  CONTENTS, ALLOC, LOAD, DATA
  6 .init_array   00000004  08001334  08001334  00011334  2**2
                  CONTENTS, ALLOC, LOAD, DATA
  7 .fini_array   00000004  08001338  08001338  00011338  2**2
                  CONTENTS, ALLOC, LOAD, DATA
  8 .data         0000006c  20000000  0800133c  00020000  2**2
                  CONTENTS, ALLOC, LOAD, DATA
  9 .bss          00000030  2000006c  080013a8  0002006c  2**2
                  ALLOC
 10 ._user_heap_stack 00000604  2000009c  080013a8  0002009c  2**0
                  ALLOC
 11 .ARM.attributes 00000030  00000000  00000000  0002006c  2**0
                  CONTENTS, READONLY
 12 .debug_info   000020cc  00000000  00000000  0002009c  2**0
                  CONTENTS, READONLY, DEBUGGING
 13 .debug_abbrev 000005a4  00000000  00000000  00022168  2**0
                  CONTENTS, READONLY, DEBUGGING
 14 .debug_aranges 00000110  00000000  00000000  00022710  2**3
                  CONTENTS, READONLY, DEBUGGING
 15 .debug_ranges 000000d8  00000000  00000000  00022820  2**3
                  CONTENTS, READONLY, DEBUGGING
 16 .debug_macro  0000278a  00000000  00000000  000228f8  2**0
                  CONTENTS, READONLY, DEBUGGING
 17 .debug_line   000011d2  00000000  00000000  00025082  2**0
                  CONTENTS, READONLY, DEBUGGING
 18 .debug_str    000086ee  00000000  00000000  00026254  2**0
                  CONTENTS, READONLY, DEBUGGING
 19 .comment      0000007b  00000000  00000000  0002e942  2**0
                  CONTENTS, READONLY
 20 .debug_frame  00000a40  00000000  00000000  0002e9c0  2**2
                  CONTENTS, READONLY, DEBUGGING

Disassembly of section .text:

080001b0 <__do_global_dtors_aux>:
 80001b0:	b510      	push	{r4, lr}
 80001b2:	4c05      	ldr	r4, [pc, #20]	; (80001c8 <__do_global_dtors_aux+0x18>)
 80001b4:	7823      	ldrb	r3, [r4, #0]
 80001b6:	b933      	cbnz	r3, 80001c6 <__do_global_dtors_aux+0x16>
 80001b8:	4b04      	ldr	r3, [pc, #16]	; (80001cc <__do_global_dtors_aux+0x1c>)
 80001ba:	b113      	cbz	r3, 80001c2 <__do_global_dtors_aux+0x12>
 80001bc:	4804      	ldr	r0, [pc, #16]	; (80001d0 <__do_global_dtors_aux+0x20>)
 80001be:	f3af 8000 	nop.w
 80001c2:	2301      	movs	r3, #1
 80001c4:	7023      	strb	r3, [r4, #0]
 80001c6:	bd10      	pop	{r4, pc}
 80001c8:	2000006c 	.word	0x2000006c
 80001cc:	00000000 	.word	0x00000000
 80001d0:	08001274 	.word	0x08001274

080001d4 <frame_dummy>:
 80001d4:	b508      	push	{r3, lr}
 80001d6:	4b03      	ldr	r3, [pc, #12]	; (80001e4 <frame_dummy+0x10>)
 80001d8:	b11b      	cbz	r3, 80001e2 <frame_dummy+0xe>
 80001da:	4903      	ldr	r1, [pc, #12]	; (80001e8 <frame_dummy+0x14>)
 80001dc:	4803      	ldr	r0, [pc, #12]	; (80001ec <frame_dummy+0x18>)
 80001de:	f3af 8000 	nop.w
 80001e2:	bd08      	pop	{r3, pc}
 80001e4:	00000000 	.word	0x00000000
 80001e8:	20000070 	.word	0x20000070
 80001ec:	08001274 	.word	0x08001274

080001f0 <memchr>:
 80001f0:	f001 01ff 	and.w	r1, r1, #255	; 0xff
 80001f4:	2a10      	cmp	r2, #16
 80001f6:	db2b      	blt.n	8000250 <memchr+0x60>
 80001f8:	f010 0f07 	tst.w	r0, #7
 80001fc:	d008      	beq.n	8000210 <memchr+0x20>
 80001fe:	f810 3b01 	ldrb.w	r3, [r0], #1
 8000202:	3a01      	subs	r2, #1
 8000204:	428b      	cmp	r3, r1
 8000206:	d02d      	beq.n	8000264 <memchr+0x74>
 8000208:	f010 0f07 	tst.w	r0, #7
 800020c:	b342      	cbz	r2, 8000260 <memchr+0x70>
 800020e:	d1f6      	bne.n	80001fe <memchr+0xe>
 8000210:	b4f0      	push	{r4, r5, r6, r7}
 8000212:	ea41 2101 	orr.w	r1, r1, r1, lsl #8
 8000216:	ea41 4101 	orr.w	r1, r1, r1, lsl #16
 800021a:	f022 0407 	bic.w	r4, r2, #7
 800021e:	f07f 0700 	mvns.w	r7, #0
 8000222:	2300      	movs	r3, #0
 8000224:	e8f0 5602 	ldrd	r5, r6, [r0], #8
 8000228:	3c08      	subs	r4, #8
 800022a:	ea85 0501 	eor.w	r5, r5, r1
 800022e:	ea86 0601 	eor.w	r6, r6, r1
 8000232:	fa85 f547 	uadd8	r5, r5, r7
 8000236:	faa3 f587 	sel	r5, r3, r7
 800023a:	fa86 f647 	uadd8	r6, r6, r7
 800023e:	faa5 f687 	sel	r6, r5, r7
 8000242:	b98e      	cbnz	r6, 8000268 <memchr+0x78>
 8000244:	d1ee      	bne.n	8000224 <memchr+0x34>
 8000246:	bcf0      	pop	{r4, r5, r6, r7}
 8000248:	f001 01ff 	and.w	r1, r1, #255	; 0xff
 800024c:	f002 0207 	and.w	r2, r2, #7
 8000250:	b132      	cbz	r2, 8000260 <memchr+0x70>
 8000252:	f810 3b01 	ldrb.w	r3, [r0], #1
 8000256:	3a01      	subs	r2, #1
 8000258:	ea83 0301 	eor.w	r3, r3, r1
 800025c:	b113      	cbz	r3, 8000264 <memchr+0x74>
 800025e:	d1f8      	bne.n	8000252 <memchr+0x62>
 8000260:	2000      	movs	r0, #0
 8000262:	4770      	bx	lr
 8000264:	3801      	subs	r0, #1
 8000266:	4770      	bx	lr
 8000268:	2d00      	cmp	r5, #0
 800026a:	bf06      	itte	eq
 800026c:	4635      	moveq	r5, r6
 800026e:	3803      	subeq	r0, #3
 8000270:	3807      	subne	r0, #7
 8000272:	f015 0f01 	tst.w	r5, #1
 8000276:	d107      	bne.n	8000288 <memchr+0x98>
 8000278:	3001      	adds	r0, #1
 800027a:	f415 7f80 	tst.w	r5, #256	; 0x100
 800027e:	bf02      	ittt	eq
 8000280:	3001      	addeq	r0, #1
 8000282:	f415 3fc0 	tsteq.w	r5, #98304	; 0x18000
 8000286:	3001      	addeq	r0, #1
 8000288:	bcf0      	pop	{r4, r5, r6, r7}
 800028a:	3801      	subs	r0, #1
 800028c:	4770      	bx	lr
 800028e:	bf00      	nop

08000290 <main>:
int g_data1 = -4000;
int g_data2 = 200;
int result = 0;

int main(void)
{
 8000290:	b580      	push	{r7, lr}
 8000292:	af00      	add	r7, sp, #0
	result = g_data1 + g_data2;
 8000294:	4b06      	ldr	r3, [pc, #24]	; (80002b0 <main+0x20>)
 8000296:	681a      	ldr	r2, [r3, #0]
 8000298:	4b06      	ldr	r3, [pc, #24]	; (80002b4 <main+0x24>)
 800029a:	681b      	ldr	r3, [r3, #0]
 800029c:	4413      	add	r3, r2
 800029e:	4a06      	ldr	r2, [pc, #24]	; (80002b8 <main+0x28>)
 80002a0:	6013      	str	r3, [r2, #0]

	printf("Result = %d\n", result);
 80002a2:	4b05      	ldr	r3, [pc, #20]	; (80002b8 <main+0x28>)
 80002a4:	681b      	ldr	r3, [r3, #0]
 80002a6:	4619      	mov	r1, r3
 80002a8:	4804      	ldr	r0, [pc, #16]	; (80002bc <main+0x2c>)
 80002aa:	f000 f8ff 	bl	80004ac <iprintf>
	for(;;);
 80002ae:	e7fe      	b.n	80002ae <main+0x1e>
 80002b0:	20000000 	.word	0x20000000
 80002b4:	20000004 	.word	0x20000004
 80002b8:	20000088 	.word	0x20000088
 80002bc:	0800128c 	.word	0x0800128c

080002c0 <_read>:
	_kill(status, -1);
	while (1) {}		/* Make sure we hang here */
}

__attribute__((weak)) int _read(int file, char *ptr, int len)
{
 80002c0:	b580      	push	{r7, lr}
 80002c2:	b086      	sub	sp, #24
 80002c4:	af00      	add	r7, sp, #0
 80002c6:	60f8      	str	r0, [r7, #12]
 80002c8:	60b9      	str	r1, [r7, #8]
 80002ca:	607a      	str	r2, [r7, #4]
	int DataIdx;

	for (DataIdx = 0; DataIdx < len; DataIdx++)
 80002cc:	2300      	movs	r3, #0
 80002ce:	617b      	str	r3, [r7, #20]
 80002d0:	e00a      	b.n	80002e8 <_read+0x28>
	{
		*ptr++ = __io_getchar();
 80002d2:	f3af 8000 	nop.w
 80002d6:	4601      	mov	r1, r0
 80002d8:	68bb      	ldr	r3, [r7, #8]
 80002da:	1c5a      	adds	r2, r3, #1
 80002dc:	60ba      	str	r2, [r7, #8]
 80002de:	b2ca      	uxtb	r2, r1
 80002e0:	701a      	strb	r2, [r3, #0]
	for (DataIdx = 0; DataIdx < len; DataIdx++)
 80002e2:	697b      	ldr	r3, [r7, #20]
 80002e4:	3301      	adds	r3, #1
 80002e6:	617b      	str	r3, [r7, #20]
 80002e8:	697a      	ldr	r2, [r7, #20]
 80002ea:	687b      	ldr	r3, [r7, #4]
 80002ec:	429a      	cmp	r2, r3
 80002ee:	dbf0      	blt.n	80002d2 <_read+0x12>
	}

return len;
 80002f0:	687b      	ldr	r3, [r7, #4]
}
 80002f2:	4618      	mov	r0, r3
 80002f4:	3718      	adds	r7, #24
 80002f6:	46bd      	mov	sp, r7
 80002f8:	bd80      	pop	{r7, pc}

080002fa <_write>:

__attribute__((weak)) int _write(int file, char *ptr, int len)
{
 80002fa:	b580      	push	{r7, lr}
 80002fc:	b086      	sub	sp, #24
 80002fe:	af00      	add	r7, sp, #0
 8000300:	60f8      	str	r0, [r7, #12]
 8000302:	60b9      	str	r1, [r7, #8]
 8000304:	607a      	str	r2, [r7, #4]
	int DataIdx;

	for (DataIdx = 0; DataIdx < len; DataIdx++)
 8000306:	2300      	movs	r3, #0
 8000308:	617b      	str	r3, [r7, #20]
 800030a:	e009      	b.n	8000320 <_write+0x26>
	{
		__io_putchar(*ptr++);
 800030c:	68bb      	ldr	r3, [r7, #8]
 800030e:	1c5a      	adds	r2, r3, #1
 8000310:	60ba      	str	r2, [r7, #8]
 8000312:	781b      	ldrb	r3, [r3, #0]
 8000314:	4618      	mov	r0, r3
 8000316:	f3af 8000 	nop.w
	for (DataIdx = 0; DataIdx < len; DataIdx++)
 800031a:	697b      	ldr	r3, [r7, #20]
 800031c:	3301      	adds	r3, #1
 800031e:	617b      	str	r3, [r7, #20]
 8000320:	697a      	ldr	r2, [r7, #20]
 8000322:	687b      	ldr	r3, [r7, #4]
 8000324:	429a      	cmp	r2, r3
 8000326:	dbf1      	blt.n	800030c <_write+0x12>
	}
	return len;
 8000328:	687b      	ldr	r3, [r7, #4]
}
 800032a:	4618      	mov	r0, r3
 800032c:	3718      	adds	r7, #24
 800032e:	46bd      	mov	sp, r7
 8000330:	bd80      	pop	{r7, pc}

08000332 <_close>:

int _close(int file)
{
 8000332:	b480      	push	{r7}
 8000334:	b083      	sub	sp, #12
 8000336:	af00      	add	r7, sp, #0
 8000338:	6078      	str	r0, [r7, #4]
	return -1;
 800033a:	f04f 33ff 	mov.w	r3, #4294967295	; 0xffffffff
}
 800033e:	4618      	mov	r0, r3
 8000340:	370c      	adds	r7, #12
 8000342:	46bd      	mov	sp, r7
 8000344:	f85d 7b04 	ldr.w	r7, [sp], #4
 8000348:	4770      	bx	lr

0800034a <_fstat>:


int _fstat(int file, struct stat *st)
{
 800034a:	b480      	push	{r7}
 800034c:	b083      	sub	sp, #12
 800034e:	af00      	add	r7, sp, #0
 8000350:	6078      	str	r0, [r7, #4]
 8000352:	6039      	str	r1, [r7, #0]
	st->st_mode = S_IFCHR;
 8000354:	683b      	ldr	r3, [r7, #0]
 8000356:	f44f 5200 	mov.w	r2, #8192	; 0x2000
 800035a:	605a      	str	r2, [r3, #4]
	return 0;
 800035c:	2300      	movs	r3, #0
}
 800035e:	4618      	mov	r0, r3
 8000360:	370c      	adds	r7, #12
 8000362:	46bd      	mov	sp, r7
 8000364:	f85d 7b04 	ldr.w	r7, [sp], #4
 8000368:	4770      	bx	lr

0800036a <_isatty>:

int _isatty(int file)
{
 800036a:	b480      	push	{r7}
 800036c:	b083      	sub	sp, #12
 800036e:	af00      	add	r7, sp, #0
 8000370:	6078      	str	r0, [r7, #4]
	return 1;
 8000372:	2301      	movs	r3, #1
}
 8000374:	4618      	mov	r0, r3
 8000376:	370c      	adds	r7, #12
 8000378:	46bd      	mov	sp, r7
 800037a:	f85d 7b04 	ldr.w	r7, [sp], #4
 800037e:	4770      	bx	lr

08000380 <_lseek>:

int _lseek(int file, int ptr, int dir)
{
 8000380:	b480      	push	{r7}
 8000382:	b085      	sub	sp, #20
 8000384:	af00      	add	r7, sp, #0
 8000386:	60f8      	str	r0, [r7, #12]
 8000388:	60b9      	str	r1, [r7, #8]
 800038a:	607a      	str	r2, [r7, #4]
	return 0;
 800038c:	2300      	movs	r3, #0
}
 800038e:	4618      	mov	r0, r3
 8000390:	3714      	adds	r7, #20
 8000392:	46bd      	mov	sp, r7
 8000394:	f85d 7b04 	ldr.w	r7, [sp], #4
 8000398:	4770      	bx	lr
	...

0800039c <_sbrk>:
/**
 _sbrk
 Increase program data space. Malloc and related functions depend on this
**/
caddr_t _sbrk(int incr)
{
 800039c:	b580      	push	{r7, lr}
 800039e:	b084      	sub	sp, #16
 80003a0:	af00      	add	r7, sp, #0
 80003a2:	6078      	str	r0, [r7, #4]
	extern char end asm("end");
	static char *heap_end;
	char *prev_heap_end;

	if (heap_end == 0)
 80003a4:	4b11      	ldr	r3, [pc, #68]	; (80003ec <_sbrk+0x50>)
 80003a6:	681b      	ldr	r3, [r3, #0]
 80003a8:	2b00      	cmp	r3, #0
 80003aa:	d102      	bne.n	80003b2 <_sbrk+0x16>
		heap_end = &end;
 80003ac:	4b0f      	ldr	r3, [pc, #60]	; (80003ec <_sbrk+0x50>)
 80003ae:	4a10      	ldr	r2, [pc, #64]	; (80003f0 <_sbrk+0x54>)
 80003b0:	601a      	str	r2, [r3, #0]

	prev_heap_end = heap_end;
 80003b2:	4b0e      	ldr	r3, [pc, #56]	; (80003ec <_sbrk+0x50>)
 80003b4:	681b      	ldr	r3, [r3, #0]
 80003b6:	60fb      	str	r3, [r7, #12]
	if (heap_end + incr > stack_ptr)
 80003b8:	4b0c      	ldr	r3, [pc, #48]	; (80003ec <_sbrk+0x50>)
 80003ba:	681a      	ldr	r2, [r3, #0]
 80003bc:	687b      	ldr	r3, [r7, #4]
 80003be:	4413      	add	r3, r2
 80003c0:	466a      	mov	r2, sp
 80003c2:	4293      	cmp	r3, r2
 80003c4:	d907      	bls.n	80003d6 <_sbrk+0x3a>
	{
		errno = ENOMEM;
 80003c6:	f000 f83f 	bl	8000448 <__errno>
 80003ca:	4602      	mov	r2, r0
 80003cc:	230c      	movs	r3, #12
 80003ce:	6013      	str	r3, [r2, #0]
		return (caddr_t) -1;
 80003d0:	f04f 33ff 	mov.w	r3, #4294967295	; 0xffffffff
 80003d4:	e006      	b.n	80003e4 <_sbrk+0x48>
	}

	heap_end += incr;
 80003d6:	4b05      	ldr	r3, [pc, #20]	; (80003ec <_sbrk+0x50>)
 80003d8:	681a      	ldr	r2, [r3, #0]
 80003da:	687b      	ldr	r3, [r7, #4]
 80003dc:	4413      	add	r3, r2
 80003de:	4a03      	ldr	r2, [pc, #12]	; (80003ec <_sbrk+0x50>)
 80003e0:	6013      	str	r3, [r2, #0]

	return (caddr_t) prev_heap_end;
 80003e2:	68fb      	ldr	r3, [r7, #12]
}
 80003e4:	4618      	mov	r0, r3
 80003e6:	3710      	adds	r7, #16
 80003e8:	46bd      	mov	sp, r7
 80003ea:	bd80      	pop	{r7, pc}
 80003ec:	2000008c 	.word	0x2000008c
 80003f0:	200000a0 	.word	0x200000a0

080003f4 <Reset_Handler>:

  .section .text.Reset_Handler
  .weak Reset_Handler
  .type Reset_Handler, %function
Reset_Handler:
  ldr   r0, =_estack
 80003f4:	480d      	ldr	r0, [pc, #52]	; (800042c <LoopForever+0x2>)
  mov   sp, r0          /* set stack pointer */
 80003f6:	4685      	mov	sp, r0

/* Copy the data segment initializers from flash to SRAM */
  ldr r0, =_sdata
 80003f8:	480d      	ldr	r0, [pc, #52]	; (8000430 <LoopForever+0x6>)
  ldr r1, =_edata
 80003fa:	490e      	ldr	r1, [pc, #56]	; (8000434 <LoopForever+0xa>)
  ldr r2, =_sidata
 80003fc:	4a0e      	ldr	r2, [pc, #56]	; (8000438 <LoopForever+0xe>)
  movs r3, #0
 80003fe:	2300      	movs	r3, #0
  b LoopCopyDataInit
 8000400:	e002      	b.n	8000408 <LoopCopyDataInit>

08000402 <CopyDataInit>:

CopyDataInit:
  ldr r4, [r2, r3]
 8000402:	58d4      	ldr	r4, [r2, r3]
  str r4, [r0, r3]
 8000404:	50c4      	str	r4, [r0, r3]
  adds r3, r3, #4
 8000406:	3304      	adds	r3, #4

08000408 <LoopCopyDataInit>:

LoopCopyDataInit:
  adds r4, r0, r3
 8000408:	18c4      	adds	r4, r0, r3
  cmp r4, r1
 800040a:	428c      	cmp	r4, r1
  bcc CopyDataInit
 800040c:	d3f9      	bcc.n	8000402 <CopyDataInit>

/* Zero fill the bss segment. */
  ldr r2, =_sbss
 800040e:	4a0b      	ldr	r2, [pc, #44]	; (800043c <LoopForever+0x12>)
  ldr r4, =_ebss
 8000410:	4c0b      	ldr	r4, [pc, #44]	; (8000440 <LoopForever+0x16>)
  movs r3, #0
 8000412:	2300      	movs	r3, #0
  b LoopFillZerobss
 8000414:	e001      	b.n	800041a <LoopFillZerobss>

08000416 <FillZerobss>:

FillZerobss:
  str  r3, [r2]
 8000416:	6013      	str	r3, [r2, #0]
  adds r2, r2, #4
 8000418:	3204      	adds	r2, #4

0800041a <LoopFillZerobss>:

LoopFillZerobss:
  cmp r2, r4
 800041a:	42a2      	cmp	r2, r4
  bcc FillZerobss
 800041c:	d3fb      	bcc.n	8000416 <FillZerobss>

/* Call the clock system intitialization function.*/
  bl  SystemInit
 800041e:	f3af 8000 	nop.w
/* Call static constructors */
  bl __libc_init_array
 8000422:	f000 f817 	bl	8000454 <__libc_init_array>
/* Call the application's entry point.*/
  bl main
 8000426:	f7ff ff33 	bl	8000290 <main>

0800042a <LoopForever>:

LoopForever:
    b LoopForever
 800042a:	e7fe      	b.n	800042a <LoopForever>
  ldr   r0, =_estack
 800042c:	20020000 	.word	0x20020000
  ldr r0, =_sdata
 8000430:	20000000 	.word	0x20000000
  ldr r1, =_edata
 8000434:	2000006c 	.word	0x2000006c
  ldr r2, =_sidata
 8000438:	0800133c 	.word	0x0800133c
  ldr r2, =_sbss
 800043c:	2000006c 	.word	0x2000006c
  ldr r4, =_ebss
 8000440:	2000009c 	.word	0x2000009c

08000444 <ADC_IRQHandler>:
 * @retval : None
*/
  .section .text.Default_Handler,"ax",%progbits
Default_Handler:
Infinite_Loop:
  b Infinite_Loop
 8000444:	e7fe      	b.n	8000444 <ADC_IRQHandler>
	...

08000448 <__errno>:
 8000448:	4b01      	ldr	r3, [pc, #4]	; (8000450 <__errno+0x8>)
 800044a:	6818      	ldr	r0, [r3, #0]
 800044c:	4770      	bx	lr
 800044e:	bf00      	nop
 8000450:	20000008 	.word	0x20000008

08000454 <__libc_init_array>:
 8000454:	b570      	push	{r4, r5, r6, lr}
 8000456:	4e0d      	ldr	r6, [pc, #52]	; (800048c <__libc_init_array+0x38>)
 8000458:	4c0d      	ldr	r4, [pc, #52]	; (8000490 <__libc_init_array+0x3c>)
 800045a:	1ba4      	subs	r4, r4, r6
 800045c:	10a4      	asrs	r4, r4, #2
 800045e:	2500      	movs	r5, #0
 8000460:	42a5      	cmp	r5, r4
 8000462:	d109      	bne.n	8000478 <__libc_init_array+0x24>
 8000464:	4e0b      	ldr	r6, [pc, #44]	; (8000494 <__libc_init_array+0x40>)
 8000466:	4c0c      	ldr	r4, [pc, #48]	; (8000498 <__libc_init_array+0x44>)
 8000468:	f000 ff04 	bl	8001274 <_init>
 800046c:	1ba4      	subs	r4, r4, r6
 800046e:	10a4      	asrs	r4, r4, #2
 8000470:	2500      	movs	r5, #0
 8000472:	42a5      	cmp	r5, r4
 8000474:	d105      	bne.n	8000482 <__libc_init_array+0x2e>
 8000476:	bd70      	pop	{r4, r5, r6, pc}
 8000478:	f856 3025 	ldr.w	r3, [r6, r5, lsl #2]
 800047c:	4798      	blx	r3
 800047e:	3501      	adds	r5, #1
 8000480:	e7ee      	b.n	8000460 <__libc_init_array+0xc>
 8000482:	f856 3025 	ldr.w	r3, [r6, r5, lsl #2]
 8000486:	4798      	blx	r3
 8000488:	3501      	adds	r5, #1
 800048a:	e7f2      	b.n	8000472 <__libc_init_array+0x1e>
 800048c:	08001334 	.word	0x08001334
 8000490:	08001334 	.word	0x08001334
 8000494:	08001334 	.word	0x08001334
 8000498:	08001338 	.word	0x08001338

0800049c <memset>:
 800049c:	4402      	add	r2, r0
 800049e:	4603      	mov	r3, r0
 80004a0:	4293      	cmp	r3, r2
 80004a2:	d100      	bne.n	80004a6 <memset+0xa>
 80004a4:	4770      	bx	lr
 80004a6:	f803 1b01 	strb.w	r1, [r3], #1
 80004aa:	e7f9      	b.n	80004a0 <memset+0x4>

080004ac <iprintf>:
 80004ac:	b40f      	push	{r0, r1, r2, r3}
 80004ae:	4b0a      	ldr	r3, [pc, #40]	; (80004d8 <iprintf+0x2c>)
 80004b0:	b513      	push	{r0, r1, r4, lr}
 80004b2:	681c      	ldr	r4, [r3, #0]
 80004b4:	b124      	cbz	r4, 80004c0 <iprintf+0x14>
 80004b6:	69a3      	ldr	r3, [r4, #24]
 80004b8:	b913      	cbnz	r3, 80004c0 <iprintf+0x14>
 80004ba:	4620      	mov	r0, r4
 80004bc:	f000 f84e 	bl	800055c <__sinit>
 80004c0:	ab05      	add	r3, sp, #20
 80004c2:	9a04      	ldr	r2, [sp, #16]
 80004c4:	68a1      	ldr	r1, [r4, #8]
 80004c6:	9301      	str	r3, [sp, #4]
 80004c8:	4620      	mov	r0, r4
 80004ca:	f000 f955 	bl	8000778 <_vfiprintf_r>
 80004ce:	b002      	add	sp, #8
 80004d0:	e8bd 4010 	ldmia.w	sp!, {r4, lr}
 80004d4:	b004      	add	sp, #16
 80004d6:	4770      	bx	lr
 80004d8:	20000008 	.word	0x20000008

080004dc <std>:
 80004dc:	2300      	movs	r3, #0
 80004de:	b510      	push	{r4, lr}
 80004e0:	4604      	mov	r4, r0
 80004e2:	e9c0 3300 	strd	r3, r3, [r0]
 80004e6:	6083      	str	r3, [r0, #8]
 80004e8:	8181      	strh	r1, [r0, #12]
 80004ea:	6643      	str	r3, [r0, #100]	; 0x64
 80004ec:	81c2      	strh	r2, [r0, #14]
 80004ee:	e9c0 3304 	strd	r3, r3, [r0, #16]
 80004f2:	6183      	str	r3, [r0, #24]
 80004f4:	4619      	mov	r1, r3
 80004f6:	2208      	movs	r2, #8
 80004f8:	305c      	adds	r0, #92	; 0x5c
 80004fa:	f7ff ffcf 	bl	800049c <memset>
 80004fe:	4b05      	ldr	r3, [pc, #20]	; (8000514 <std+0x38>)
 8000500:	6263      	str	r3, [r4, #36]	; 0x24
 8000502:	4b05      	ldr	r3, [pc, #20]	; (8000518 <std+0x3c>)
 8000504:	62a3      	str	r3, [r4, #40]	; 0x28
 8000506:	4b05      	ldr	r3, [pc, #20]	; (800051c <std+0x40>)
 8000508:	62e3      	str	r3, [r4, #44]	; 0x2c
 800050a:	4b05      	ldr	r3, [pc, #20]	; (8000520 <std+0x44>)
 800050c:	6224      	str	r4, [r4, #32]
 800050e:	6323      	str	r3, [r4, #48]	; 0x30
 8000510:	bd10      	pop	{r4, pc}
 8000512:	bf00      	nop
 8000514:	08000cd5 	.word	0x08000cd5
 8000518:	08000cf7 	.word	0x08000cf7
 800051c:	08000d2f 	.word	0x08000d2f
 8000520:	08000d53 	.word	0x08000d53

08000524 <_cleanup_r>:
 8000524:	4901      	ldr	r1, [pc, #4]	; (800052c <_cleanup_r+0x8>)
 8000526:	f000 b885 	b.w	8000634 <_fwalk_reent>
 800052a:	bf00      	nop
 800052c:	0800102d 	.word	0x0800102d

08000530 <__sfmoreglue>:
 8000530:	b570      	push	{r4, r5, r6, lr}
 8000532:	1e4a      	subs	r2, r1, #1
 8000534:	2568      	movs	r5, #104	; 0x68
 8000536:	4355      	muls	r5, r2
 8000538:	460e      	mov	r6, r1
 800053a:	f105 0174 	add.w	r1, r5, #116	; 0x74
 800053e:	f000 f897 	bl	8000670 <_malloc_r>
 8000542:	4604      	mov	r4, r0
 8000544:	b140      	cbz	r0, 8000558 <__sfmoreglue+0x28>
 8000546:	2100      	movs	r1, #0
 8000548:	e9c0 1600 	strd	r1, r6, [r0]
 800054c:	300c      	adds	r0, #12
 800054e:	60a0      	str	r0, [r4, #8]
 8000550:	f105 0268 	add.w	r2, r5, #104	; 0x68
 8000554:	f7ff ffa2 	bl	800049c <memset>
 8000558:	4620      	mov	r0, r4
 800055a:	bd70      	pop	{r4, r5, r6, pc}

0800055c <__sinit>:
 800055c:	6983      	ldr	r3, [r0, #24]
 800055e:	b510      	push	{r4, lr}
 8000560:	4604      	mov	r4, r0
 8000562:	bb33      	cbnz	r3, 80005b2 <__sinit+0x56>
 8000564:	e9c0 3312 	strd	r3, r3, [r0, #72]	; 0x48
 8000568:	6503      	str	r3, [r0, #80]	; 0x50
 800056a:	4b12      	ldr	r3, [pc, #72]	; (80005b4 <__sinit+0x58>)
 800056c:	4a12      	ldr	r2, [pc, #72]	; (80005b8 <__sinit+0x5c>)
 800056e:	681b      	ldr	r3, [r3, #0]
 8000570:	6282      	str	r2, [r0, #40]	; 0x28
 8000572:	4298      	cmp	r0, r3
 8000574:	bf04      	itt	eq
 8000576:	2301      	moveq	r3, #1
 8000578:	6183      	streq	r3, [r0, #24]
 800057a:	f000 f81f 	bl	80005bc <__sfp>
 800057e:	6060      	str	r0, [r4, #4]
 8000580:	4620      	mov	r0, r4
 8000582:	f000 f81b 	bl	80005bc <__sfp>
 8000586:	60a0      	str	r0, [r4, #8]
 8000588:	4620      	mov	r0, r4
 800058a:	f000 f817 	bl	80005bc <__sfp>
 800058e:	2200      	movs	r2, #0
 8000590:	60e0      	str	r0, [r4, #12]
 8000592:	2104      	movs	r1, #4
 8000594:	6860      	ldr	r0, [r4, #4]
 8000596:	f7ff ffa1 	bl	80004dc <std>
 800059a:	2201      	movs	r2, #1
 800059c:	2109      	movs	r1, #9
 800059e:	68a0      	ldr	r0, [r4, #8]
 80005a0:	f7ff ff9c 	bl	80004dc <std>
 80005a4:	2202      	movs	r2, #2
 80005a6:	2112      	movs	r1, #18
 80005a8:	68e0      	ldr	r0, [r4, #12]
 80005aa:	f7ff ff97 	bl	80004dc <std>
 80005ae:	2301      	movs	r3, #1
 80005b0:	61a3      	str	r3, [r4, #24]
 80005b2:	bd10      	pop	{r4, pc}
 80005b4:	0800129c 	.word	0x0800129c
 80005b8:	08000525 	.word	0x08000525

080005bc <__sfp>:
 80005bc:	b5f8      	push	{r3, r4, r5, r6, r7, lr}
 80005be:	4b1b      	ldr	r3, [pc, #108]	; (800062c <__sfp+0x70>)
 80005c0:	681e      	ldr	r6, [r3, #0]
 80005c2:	69b3      	ldr	r3, [r6, #24]
 80005c4:	4607      	mov	r7, r0
 80005c6:	b913      	cbnz	r3, 80005ce <__sfp+0x12>
 80005c8:	4630      	mov	r0, r6
 80005ca:	f7ff ffc7 	bl	800055c <__sinit>
 80005ce:	3648      	adds	r6, #72	; 0x48
 80005d0:	e9d6 3401 	ldrd	r3, r4, [r6, #4]
 80005d4:	3b01      	subs	r3, #1
 80005d6:	d503      	bpl.n	80005e0 <__sfp+0x24>
 80005d8:	6833      	ldr	r3, [r6, #0]
 80005da:	b133      	cbz	r3, 80005ea <__sfp+0x2e>
 80005dc:	6836      	ldr	r6, [r6, #0]
 80005de:	e7f7      	b.n	80005d0 <__sfp+0x14>
 80005e0:	f9b4 500c 	ldrsh.w	r5, [r4, #12]
 80005e4:	b16d      	cbz	r5, 8000602 <__sfp+0x46>
 80005e6:	3468      	adds	r4, #104	; 0x68
 80005e8:	e7f4      	b.n	80005d4 <__sfp+0x18>
 80005ea:	2104      	movs	r1, #4
 80005ec:	4638      	mov	r0, r7
 80005ee:	f7ff ff9f 	bl	8000530 <__sfmoreglue>
 80005f2:	6030      	str	r0, [r6, #0]
 80005f4:	2800      	cmp	r0, #0
 80005f6:	d1f1      	bne.n	80005dc <__sfp+0x20>
 80005f8:	230c      	movs	r3, #12
 80005fa:	603b      	str	r3, [r7, #0]
 80005fc:	4604      	mov	r4, r0
 80005fe:	4620      	mov	r0, r4
 8000600:	bdf8      	pop	{r3, r4, r5, r6, r7, pc}
 8000602:	4b0b      	ldr	r3, [pc, #44]	; (8000630 <__sfp+0x74>)
 8000604:	6665      	str	r5, [r4, #100]	; 0x64
 8000606:	e9c4 5500 	strd	r5, r5, [r4]
 800060a:	60a5      	str	r5, [r4, #8]
 800060c:	e9c4 3503 	strd	r3, r5, [r4, #12]
 8000610:	e9c4 5505 	strd	r5, r5, [r4, #20]
 8000614:	2208      	movs	r2, #8
 8000616:	4629      	mov	r1, r5
 8000618:	f104 005c 	add.w	r0, r4, #92	; 0x5c
 800061c:	f7ff ff3e 	bl	800049c <memset>
 8000620:	e9c4 550d 	strd	r5, r5, [r4, #52]	; 0x34
 8000624:	e9c4 5512 	strd	r5, r5, [r4, #72]	; 0x48
 8000628:	e7e9      	b.n	80005fe <__sfp+0x42>
 800062a:	bf00      	nop
 800062c:	0800129c 	.word	0x0800129c
 8000630:	ffff0001 	.word	0xffff0001

08000634 <_fwalk_reent>:
 8000634:	e92d 43f8 	stmdb	sp!, {r3, r4, r5, r6, r7, r8, r9, lr}
 8000638:	4680      	mov	r8, r0
 800063a:	4689      	mov	r9, r1
 800063c:	f100 0448 	add.w	r4, r0, #72	; 0x48
 8000640:	2600      	movs	r6, #0
 8000642:	b914      	cbnz	r4, 800064a <_fwalk_reent+0x16>
 8000644:	4630      	mov	r0, r6
 8000646:	e8bd 83f8 	ldmia.w	sp!, {r3, r4, r5, r6, r7, r8, r9, pc}
 800064a:	e9d4 7501 	ldrd	r7, r5, [r4, #4]
 800064e:	3f01      	subs	r7, #1
 8000650:	d501      	bpl.n	8000656 <_fwalk_reent+0x22>
 8000652:	6824      	ldr	r4, [r4, #0]
 8000654:	e7f5      	b.n	8000642 <_fwalk_reent+0xe>
 8000656:	89ab      	ldrh	r3, [r5, #12]
 8000658:	2b01      	cmp	r3, #1
 800065a:	d907      	bls.n	800066c <_fwalk_reent+0x38>
 800065c:	f9b5 300e 	ldrsh.w	r3, [r5, #14]
 8000660:	3301      	adds	r3, #1
 8000662:	d003      	beq.n	800066c <_fwalk_reent+0x38>
 8000664:	4629      	mov	r1, r5
 8000666:	4640      	mov	r0, r8
 8000668:	47c8      	blx	r9
 800066a:	4306      	orrs	r6, r0
 800066c:	3568      	adds	r5, #104	; 0x68
 800066e:	e7ee      	b.n	800064e <_fwalk_reent+0x1a>

08000670 <_malloc_r>:
 8000670:	b570      	push	{r4, r5, r6, lr}
 8000672:	1ccd      	adds	r5, r1, #3
 8000674:	f025 0503 	bic.w	r5, r5, #3
 8000678:	3508      	adds	r5, #8
 800067a:	2d0c      	cmp	r5, #12
 800067c:	bf38      	it	cc
 800067e:	250c      	movcc	r5, #12
 8000680:	2d00      	cmp	r5, #0
 8000682:	4606      	mov	r6, r0
 8000684:	db01      	blt.n	800068a <_malloc_r+0x1a>
 8000686:	42a9      	cmp	r1, r5
 8000688:	d903      	bls.n	8000692 <_malloc_r+0x22>
 800068a:	230c      	movs	r3, #12
 800068c:	6033      	str	r3, [r6, #0]
 800068e:	2000      	movs	r0, #0
 8000690:	bd70      	pop	{r4, r5, r6, pc}
 8000692:	f000 fd6b 	bl	800116c <__malloc_lock>
 8000696:	4a21      	ldr	r2, [pc, #132]	; (800071c <_malloc_r+0xac>)
 8000698:	6814      	ldr	r4, [r2, #0]
 800069a:	4621      	mov	r1, r4
 800069c:	b991      	cbnz	r1, 80006c4 <_malloc_r+0x54>
 800069e:	4c20      	ldr	r4, [pc, #128]	; (8000720 <_malloc_r+0xb0>)
 80006a0:	6823      	ldr	r3, [r4, #0]
 80006a2:	b91b      	cbnz	r3, 80006ac <_malloc_r+0x3c>
 80006a4:	4630      	mov	r0, r6
 80006a6:	f000 fb05 	bl	8000cb4 <_sbrk_r>
 80006aa:	6020      	str	r0, [r4, #0]
 80006ac:	4629      	mov	r1, r5
 80006ae:	4630      	mov	r0, r6
 80006b0:	f000 fb00 	bl	8000cb4 <_sbrk_r>
 80006b4:	1c43      	adds	r3, r0, #1
 80006b6:	d124      	bne.n	8000702 <_malloc_r+0x92>
 80006b8:	230c      	movs	r3, #12
 80006ba:	6033      	str	r3, [r6, #0]
 80006bc:	4630      	mov	r0, r6
 80006be:	f000 fd56 	bl	800116e <__malloc_unlock>
 80006c2:	e7e4      	b.n	800068e <_malloc_r+0x1e>
 80006c4:	680b      	ldr	r3, [r1, #0]
 80006c6:	1b5b      	subs	r3, r3, r5
 80006c8:	d418      	bmi.n	80006fc <_malloc_r+0x8c>
 80006ca:	2b0b      	cmp	r3, #11
 80006cc:	d90f      	bls.n	80006ee <_malloc_r+0x7e>
 80006ce:	600b      	str	r3, [r1, #0]
 80006d0:	50cd      	str	r5, [r1, r3]
 80006d2:	18cc      	adds	r4, r1, r3
 80006d4:	4630      	mov	r0, r6
 80006d6:	f000 fd4a 	bl	800116e <__malloc_unlock>
 80006da:	f104 000b 	add.w	r0, r4, #11
 80006de:	1d23      	adds	r3, r4, #4
 80006e0:	f020 0007 	bic.w	r0, r0, #7
 80006e4:	1ac3      	subs	r3, r0, r3
 80006e6:	d0d3      	beq.n	8000690 <_malloc_r+0x20>
 80006e8:	425a      	negs	r2, r3
 80006ea:	50e2      	str	r2, [r4, r3]
 80006ec:	e7d0      	b.n	8000690 <_malloc_r+0x20>
 80006ee:	428c      	cmp	r4, r1
 80006f0:	684b      	ldr	r3, [r1, #4]
 80006f2:	bf16      	itet	ne
 80006f4:	6063      	strne	r3, [r4, #4]
 80006f6:	6013      	streq	r3, [r2, #0]
 80006f8:	460c      	movne	r4, r1
 80006fa:	e7eb      	b.n	80006d4 <_malloc_r+0x64>
 80006fc:	460c      	mov	r4, r1
 80006fe:	6849      	ldr	r1, [r1, #4]
 8000700:	e7cc      	b.n	800069c <_malloc_r+0x2c>
 8000702:	1cc4      	adds	r4, r0, #3
 8000704:	f024 0403 	bic.w	r4, r4, #3
 8000708:	42a0      	cmp	r0, r4
 800070a:	d005      	beq.n	8000718 <_malloc_r+0xa8>
 800070c:	1a21      	subs	r1, r4, r0
 800070e:	4630      	mov	r0, r6
 8000710:	f000 fad0 	bl	8000cb4 <_sbrk_r>
 8000714:	3001      	adds	r0, #1
 8000716:	d0cf      	beq.n	80006b8 <_malloc_r+0x48>
 8000718:	6025      	str	r5, [r4, #0]
 800071a:	e7db      	b.n	80006d4 <_malloc_r+0x64>
 800071c:	20000090 	.word	0x20000090
 8000720:	20000094 	.word	0x20000094

08000724 <__sfputc_r>:
 8000724:	6893      	ldr	r3, [r2, #8]
 8000726:	3b01      	subs	r3, #1
 8000728:	2b00      	cmp	r3, #0
 800072a:	b410      	push	{r4}
 800072c:	6093      	str	r3, [r2, #8]
 800072e:	da08      	bge.n	8000742 <__sfputc_r+0x1e>
 8000730:	6994      	ldr	r4, [r2, #24]
 8000732:	42a3      	cmp	r3, r4
 8000734:	db01      	blt.n	800073a <__sfputc_r+0x16>
 8000736:	290a      	cmp	r1, #10
 8000738:	d103      	bne.n	8000742 <__sfputc_r+0x1e>
 800073a:	f85d 4b04 	ldr.w	r4, [sp], #4
 800073e:	f000 bb0d 	b.w	8000d5c <__swbuf_r>
 8000742:	6813      	ldr	r3, [r2, #0]
 8000744:	1c58      	adds	r0, r3, #1
 8000746:	6010      	str	r0, [r2, #0]
 8000748:	7019      	strb	r1, [r3, #0]
 800074a:	4608      	mov	r0, r1
 800074c:	f85d 4b04 	ldr.w	r4, [sp], #4
 8000750:	4770      	bx	lr

08000752 <__sfputs_r>:
 8000752:	b5f8      	push	{r3, r4, r5, r6, r7, lr}
 8000754:	4606      	mov	r6, r0
 8000756:	460f      	mov	r7, r1
 8000758:	4614      	mov	r4, r2
 800075a:	18d5      	adds	r5, r2, r3
 800075c:	42ac      	cmp	r4, r5
 800075e:	d101      	bne.n	8000764 <__sfputs_r+0x12>
 8000760:	2000      	movs	r0, #0
 8000762:	e007      	b.n	8000774 <__sfputs_r+0x22>
 8000764:	463a      	mov	r2, r7
 8000766:	f814 1b01 	ldrb.w	r1, [r4], #1
 800076a:	4630      	mov	r0, r6
 800076c:	f7ff ffda 	bl	8000724 <__sfputc_r>
 8000770:	1c43      	adds	r3, r0, #1
 8000772:	d1f3      	bne.n	800075c <__sfputs_r+0xa>
 8000774:	bdf8      	pop	{r3, r4, r5, r6, r7, pc}
	...

08000778 <_vfiprintf_r>:
 8000778:	e92d 4ff0 	stmdb	sp!, {r4, r5, r6, r7, r8, r9, sl, fp, lr}
 800077c:	460c      	mov	r4, r1
 800077e:	b09d      	sub	sp, #116	; 0x74
 8000780:	4617      	mov	r7, r2
 8000782:	461d      	mov	r5, r3
 8000784:	4606      	mov	r6, r0
 8000786:	b118      	cbz	r0, 8000790 <_vfiprintf_r+0x18>
 8000788:	6983      	ldr	r3, [r0, #24]
 800078a:	b90b      	cbnz	r3, 8000790 <_vfiprintf_r+0x18>
 800078c:	f7ff fee6 	bl	800055c <__sinit>
 8000790:	4b7c      	ldr	r3, [pc, #496]	; (8000984 <_vfiprintf_r+0x20c>)
 8000792:	429c      	cmp	r4, r3
 8000794:	d158      	bne.n	8000848 <_vfiprintf_r+0xd0>
 8000796:	6874      	ldr	r4, [r6, #4]
 8000798:	89a3      	ldrh	r3, [r4, #12]
 800079a:	0718      	lsls	r0, r3, #28
 800079c:	d55e      	bpl.n	800085c <_vfiprintf_r+0xe4>
 800079e:	6923      	ldr	r3, [r4, #16]
 80007a0:	2b00      	cmp	r3, #0
 80007a2:	d05b      	beq.n	800085c <_vfiprintf_r+0xe4>
 80007a4:	2300      	movs	r3, #0
 80007a6:	9309      	str	r3, [sp, #36]	; 0x24
 80007a8:	2320      	movs	r3, #32
 80007aa:	f88d 3029 	strb.w	r3, [sp, #41]	; 0x29
 80007ae:	2330      	movs	r3, #48	; 0x30
 80007b0:	f88d 302a 	strb.w	r3, [sp, #42]	; 0x2a
 80007b4:	9503      	str	r5, [sp, #12]
 80007b6:	f04f 0b01 	mov.w	fp, #1
 80007ba:	46b8      	mov	r8, r7
 80007bc:	4645      	mov	r5, r8
 80007be:	f815 3b01 	ldrb.w	r3, [r5], #1
 80007c2:	b10b      	cbz	r3, 80007c8 <_vfiprintf_r+0x50>
 80007c4:	2b25      	cmp	r3, #37	; 0x25
 80007c6:	d154      	bne.n	8000872 <_vfiprintf_r+0xfa>
 80007c8:	ebb8 0a07 	subs.w	sl, r8, r7
 80007cc:	d00b      	beq.n	80007e6 <_vfiprintf_r+0x6e>
 80007ce:	4653      	mov	r3, sl
 80007d0:	463a      	mov	r2, r7
 80007d2:	4621      	mov	r1, r4
 80007d4:	4630      	mov	r0, r6
 80007d6:	f7ff ffbc 	bl	8000752 <__sfputs_r>
 80007da:	3001      	adds	r0, #1
 80007dc:	f000 80c2 	beq.w	8000964 <_vfiprintf_r+0x1ec>
 80007e0:	9b09      	ldr	r3, [sp, #36]	; 0x24
 80007e2:	4453      	add	r3, sl
 80007e4:	9309      	str	r3, [sp, #36]	; 0x24
 80007e6:	f898 3000 	ldrb.w	r3, [r8]
 80007ea:	2b00      	cmp	r3, #0
 80007ec:	f000 80ba 	beq.w	8000964 <_vfiprintf_r+0x1ec>
 80007f0:	2300      	movs	r3, #0
 80007f2:	f04f 32ff 	mov.w	r2, #4294967295	; 0xffffffff
 80007f6:	e9cd 2305 	strd	r2, r3, [sp, #20]
 80007fa:	9304      	str	r3, [sp, #16]
 80007fc:	9307      	str	r3, [sp, #28]
 80007fe:	f88d 3053 	strb.w	r3, [sp, #83]	; 0x53
 8000802:	931a      	str	r3, [sp, #104]	; 0x68
 8000804:	46a8      	mov	r8, r5
 8000806:	2205      	movs	r2, #5
 8000808:	f818 1b01 	ldrb.w	r1, [r8], #1
 800080c:	485e      	ldr	r0, [pc, #376]	; (8000988 <_vfiprintf_r+0x210>)
 800080e:	f7ff fcef 	bl	80001f0 <memchr>
 8000812:	9b04      	ldr	r3, [sp, #16]
 8000814:	bb78      	cbnz	r0, 8000876 <_vfiprintf_r+0xfe>
 8000816:	06d9      	lsls	r1, r3, #27
 8000818:	bf44      	itt	mi
 800081a:	2220      	movmi	r2, #32
 800081c:	f88d 2053 	strbmi.w	r2, [sp, #83]	; 0x53
 8000820:	071a      	lsls	r2, r3, #28
 8000822:	bf44      	itt	mi
 8000824:	222b      	movmi	r2, #43	; 0x2b
 8000826:	f88d 2053 	strbmi.w	r2, [sp, #83]	; 0x53
 800082a:	782a      	ldrb	r2, [r5, #0]
 800082c:	2a2a      	cmp	r2, #42	; 0x2a
 800082e:	d02a      	beq.n	8000886 <_vfiprintf_r+0x10e>
 8000830:	9a07      	ldr	r2, [sp, #28]
 8000832:	46a8      	mov	r8, r5
 8000834:	2000      	movs	r0, #0
 8000836:	250a      	movs	r5, #10
 8000838:	4641      	mov	r1, r8
 800083a:	f811 3b01 	ldrb.w	r3, [r1], #1
 800083e:	3b30      	subs	r3, #48	; 0x30
 8000840:	2b09      	cmp	r3, #9
 8000842:	d969      	bls.n	8000918 <_vfiprintf_r+0x1a0>
 8000844:	b360      	cbz	r0, 80008a0 <_vfiprintf_r+0x128>
 8000846:	e024      	b.n	8000892 <_vfiprintf_r+0x11a>
 8000848:	4b50      	ldr	r3, [pc, #320]	; (800098c <_vfiprintf_r+0x214>)
 800084a:	429c      	cmp	r4, r3
 800084c:	d101      	bne.n	8000852 <_vfiprintf_r+0xda>
 800084e:	68b4      	ldr	r4, [r6, #8]
 8000850:	e7a2      	b.n	8000798 <_vfiprintf_r+0x20>
 8000852:	4b4f      	ldr	r3, [pc, #316]	; (8000990 <_vfiprintf_r+0x218>)
 8000854:	429c      	cmp	r4, r3
 8000856:	bf08      	it	eq
 8000858:	68f4      	ldreq	r4, [r6, #12]
 800085a:	e79d      	b.n	8000798 <_vfiprintf_r+0x20>
 800085c:	4621      	mov	r1, r4
 800085e:	4630      	mov	r0, r6
 8000860:	f000 fae0 	bl	8000e24 <__swsetup_r>
 8000864:	2800      	cmp	r0, #0
 8000866:	d09d      	beq.n	80007a4 <_vfiprintf_r+0x2c>
 8000868:	f04f 30ff 	mov.w	r0, #4294967295	; 0xffffffff
 800086c:	b01d      	add	sp, #116	; 0x74
 800086e:	e8bd 8ff0 	ldmia.w	sp!, {r4, r5, r6, r7, r8, r9, sl, fp, pc}
 8000872:	46a8      	mov	r8, r5
 8000874:	e7a2      	b.n	80007bc <_vfiprintf_r+0x44>
 8000876:	4a44      	ldr	r2, [pc, #272]	; (8000988 <_vfiprintf_r+0x210>)
 8000878:	1a80      	subs	r0, r0, r2
 800087a:	fa0b f000 	lsl.w	r0, fp, r0
 800087e:	4318      	orrs	r0, r3
 8000880:	9004      	str	r0, [sp, #16]
 8000882:	4645      	mov	r5, r8
 8000884:	e7be      	b.n	8000804 <_vfiprintf_r+0x8c>
 8000886:	9a03      	ldr	r2, [sp, #12]
 8000888:	1d11      	adds	r1, r2, #4
 800088a:	6812      	ldr	r2, [r2, #0]
 800088c:	9103      	str	r1, [sp, #12]
 800088e:	2a00      	cmp	r2, #0
 8000890:	db01      	blt.n	8000896 <_vfiprintf_r+0x11e>
 8000892:	9207      	str	r2, [sp, #28]
 8000894:	e004      	b.n	80008a0 <_vfiprintf_r+0x128>
 8000896:	4252      	negs	r2, r2
 8000898:	f043 0302 	orr.w	r3, r3, #2
 800089c:	9207      	str	r2, [sp, #28]
 800089e:	9304      	str	r3, [sp, #16]
 80008a0:	f898 3000 	ldrb.w	r3, [r8]
 80008a4:	2b2e      	cmp	r3, #46	; 0x2e
 80008a6:	d10e      	bne.n	80008c6 <_vfiprintf_r+0x14e>
 80008a8:	f898 3001 	ldrb.w	r3, [r8, #1]
 80008ac:	2b2a      	cmp	r3, #42	; 0x2a
 80008ae:	d138      	bne.n	8000922 <_vfiprintf_r+0x1aa>
 80008b0:	9b03      	ldr	r3, [sp, #12]
 80008b2:	1d1a      	adds	r2, r3, #4
 80008b4:	681b      	ldr	r3, [r3, #0]
 80008b6:	9203      	str	r2, [sp, #12]
 80008b8:	2b00      	cmp	r3, #0
 80008ba:	bfb8      	it	lt
 80008bc:	f04f 33ff 	movlt.w	r3, #4294967295	; 0xffffffff
 80008c0:	f108 0802 	add.w	r8, r8, #2
 80008c4:	9305      	str	r3, [sp, #20]
 80008c6:	4d33      	ldr	r5, [pc, #204]	; (8000994 <_vfiprintf_r+0x21c>)
 80008c8:	f898 1000 	ldrb.w	r1, [r8]
 80008cc:	2203      	movs	r2, #3
 80008ce:	4628      	mov	r0, r5
 80008d0:	f7ff fc8e 	bl	80001f0 <memchr>
 80008d4:	b140      	cbz	r0, 80008e8 <_vfiprintf_r+0x170>
 80008d6:	2340      	movs	r3, #64	; 0x40
 80008d8:	1b40      	subs	r0, r0, r5
 80008da:	fa03 f000 	lsl.w	r0, r3, r0
 80008de:	9b04      	ldr	r3, [sp, #16]
 80008e0:	4303      	orrs	r3, r0
 80008e2:	f108 0801 	add.w	r8, r8, #1
 80008e6:	9304      	str	r3, [sp, #16]
 80008e8:	f898 1000 	ldrb.w	r1, [r8]
 80008ec:	482a      	ldr	r0, [pc, #168]	; (8000998 <_vfiprintf_r+0x220>)
 80008ee:	f88d 1028 	strb.w	r1, [sp, #40]	; 0x28
 80008f2:	2206      	movs	r2, #6
 80008f4:	f108 0701 	add.w	r7, r8, #1
 80008f8:	f7ff fc7a 	bl	80001f0 <memchr>
 80008fc:	2800      	cmp	r0, #0
 80008fe:	d037      	beq.n	8000970 <_vfiprintf_r+0x1f8>
 8000900:	4b26      	ldr	r3, [pc, #152]	; (800099c <_vfiprintf_r+0x224>)
 8000902:	bb1b      	cbnz	r3, 800094c <_vfiprintf_r+0x1d4>
 8000904:	9b03      	ldr	r3, [sp, #12]
 8000906:	3307      	adds	r3, #7
 8000908:	f023 0307 	bic.w	r3, r3, #7
 800090c:	3308      	adds	r3, #8
 800090e:	9303      	str	r3, [sp, #12]
 8000910:	9b09      	ldr	r3, [sp, #36]	; 0x24
 8000912:	444b      	add	r3, r9
 8000914:	9309      	str	r3, [sp, #36]	; 0x24
 8000916:	e750      	b.n	80007ba <_vfiprintf_r+0x42>
 8000918:	fb05 3202 	mla	r2, r5, r2, r3
 800091c:	2001      	movs	r0, #1
 800091e:	4688      	mov	r8, r1
 8000920:	e78a      	b.n	8000838 <_vfiprintf_r+0xc0>
 8000922:	2300      	movs	r3, #0
 8000924:	f108 0801 	add.w	r8, r8, #1
 8000928:	9305      	str	r3, [sp, #20]
 800092a:	4619      	mov	r1, r3
 800092c:	250a      	movs	r5, #10
 800092e:	4640      	mov	r0, r8
 8000930:	f810 2b01 	ldrb.w	r2, [r0], #1
 8000934:	3a30      	subs	r2, #48	; 0x30
 8000936:	2a09      	cmp	r2, #9
 8000938:	d903      	bls.n	8000942 <_vfiprintf_r+0x1ca>
 800093a:	2b00      	cmp	r3, #0
 800093c:	d0c3      	beq.n	80008c6 <_vfiprintf_r+0x14e>
 800093e:	9105      	str	r1, [sp, #20]
 8000940:	e7c1      	b.n	80008c6 <_vfiprintf_r+0x14e>
 8000942:	fb05 2101 	mla	r1, r5, r1, r2
 8000946:	2301      	movs	r3, #1
 8000948:	4680      	mov	r8, r0
 800094a:	e7f0      	b.n	800092e <_vfiprintf_r+0x1b6>
 800094c:	ab03      	add	r3, sp, #12
 800094e:	9300      	str	r3, [sp, #0]
 8000950:	4622      	mov	r2, r4
 8000952:	4b13      	ldr	r3, [pc, #76]	; (80009a0 <_vfiprintf_r+0x228>)
 8000954:	a904      	add	r1, sp, #16
 8000956:	4630      	mov	r0, r6
 8000958:	f3af 8000 	nop.w
 800095c:	f1b0 3fff 	cmp.w	r0, #4294967295	; 0xffffffff
 8000960:	4681      	mov	r9, r0
 8000962:	d1d5      	bne.n	8000910 <_vfiprintf_r+0x198>
 8000964:	89a3      	ldrh	r3, [r4, #12]
 8000966:	065b      	lsls	r3, r3, #25
 8000968:	f53f af7e 	bmi.w	8000868 <_vfiprintf_r+0xf0>
 800096c:	9809      	ldr	r0, [sp, #36]	; 0x24
 800096e:	e77d      	b.n	800086c <_vfiprintf_r+0xf4>
 8000970:	ab03      	add	r3, sp, #12
 8000972:	9300      	str	r3, [sp, #0]
 8000974:	4622      	mov	r2, r4
 8000976:	4b0a      	ldr	r3, [pc, #40]	; (80009a0 <_vfiprintf_r+0x228>)
 8000978:	a904      	add	r1, sp, #16
 800097a:	4630      	mov	r0, r6
 800097c:	f000 f888 	bl	8000a90 <_printf_i>
 8000980:	e7ec      	b.n	800095c <_vfiprintf_r+0x1e4>
 8000982:	bf00      	nop
 8000984:	080012c0 	.word	0x080012c0
 8000988:	08001300 	.word	0x08001300
 800098c:	080012e0 	.word	0x080012e0
 8000990:	080012a0 	.word	0x080012a0
 8000994:	08001306 	.word	0x08001306
 8000998:	0800130a 	.word	0x0800130a
 800099c:	00000000 	.word	0x00000000
 80009a0:	08000753 	.word	0x08000753

080009a4 <_printf_common>:
 80009a4:	e92d 47f0 	stmdb	sp!, {r4, r5, r6, r7, r8, r9, sl, lr}
 80009a8:	4691      	mov	r9, r2
 80009aa:	461f      	mov	r7, r3
 80009ac:	688a      	ldr	r2, [r1, #8]
 80009ae:	690b      	ldr	r3, [r1, #16]
 80009b0:	f8dd 8020 	ldr.w	r8, [sp, #32]
 80009b4:	4293      	cmp	r3, r2
 80009b6:	bfb8      	it	lt
 80009b8:	4613      	movlt	r3, r2
 80009ba:	f8c9 3000 	str.w	r3, [r9]
 80009be:	f891 2043 	ldrb.w	r2, [r1, #67]	; 0x43
 80009c2:	4606      	mov	r6, r0
 80009c4:	460c      	mov	r4, r1
 80009c6:	b112      	cbz	r2, 80009ce <_printf_common+0x2a>
 80009c8:	3301      	adds	r3, #1
 80009ca:	f8c9 3000 	str.w	r3, [r9]
 80009ce:	6823      	ldr	r3, [r4, #0]
 80009d0:	0699      	lsls	r1, r3, #26
 80009d2:	bf42      	ittt	mi
 80009d4:	f8d9 3000 	ldrmi.w	r3, [r9]
 80009d8:	3302      	addmi	r3, #2
 80009da:	f8c9 3000 	strmi.w	r3, [r9]
 80009de:	6825      	ldr	r5, [r4, #0]
 80009e0:	f015 0506 	ands.w	r5, r5, #6
 80009e4:	d107      	bne.n	80009f6 <_printf_common+0x52>
 80009e6:	f104 0a19 	add.w	sl, r4, #25
 80009ea:	68e3      	ldr	r3, [r4, #12]
 80009ec:	f8d9 2000 	ldr.w	r2, [r9]
 80009f0:	1a9b      	subs	r3, r3, r2
 80009f2:	42ab      	cmp	r3, r5
 80009f4:	dc28      	bgt.n	8000a48 <_printf_common+0xa4>
 80009f6:	f894 3043 	ldrb.w	r3, [r4, #67]	; 0x43
 80009fa:	6822      	ldr	r2, [r4, #0]
 80009fc:	3300      	adds	r3, #0
 80009fe:	bf18      	it	ne
 8000a00:	2301      	movne	r3, #1
 8000a02:	0692      	lsls	r2, r2, #26
 8000a04:	d42d      	bmi.n	8000a62 <_printf_common+0xbe>
 8000a06:	f104 0243 	add.w	r2, r4, #67	; 0x43
 8000a0a:	4639      	mov	r1, r7
 8000a0c:	4630      	mov	r0, r6
 8000a0e:	47c0      	blx	r8
 8000a10:	3001      	adds	r0, #1
 8000a12:	d020      	beq.n	8000a56 <_printf_common+0xb2>
 8000a14:	6823      	ldr	r3, [r4, #0]
 8000a16:	68e5      	ldr	r5, [r4, #12]
 8000a18:	f8d9 2000 	ldr.w	r2, [r9]
 8000a1c:	f003 0306 	and.w	r3, r3, #6
 8000a20:	2b04      	cmp	r3, #4
 8000a22:	bf08      	it	eq
 8000a24:	1aad      	subeq	r5, r5, r2
 8000a26:	68a3      	ldr	r3, [r4, #8]
 8000a28:	6922      	ldr	r2, [r4, #16]
 8000a2a:	bf0c      	ite	eq
 8000a2c:	ea25 75e5 	biceq.w	r5, r5, r5, asr #31
 8000a30:	2500      	movne	r5, #0
 8000a32:	4293      	cmp	r3, r2
 8000a34:	bfc4      	itt	gt
 8000a36:	1a9b      	subgt	r3, r3, r2
 8000a38:	18ed      	addgt	r5, r5, r3
 8000a3a:	f04f 0900 	mov.w	r9, #0
 8000a3e:	341a      	adds	r4, #26
 8000a40:	454d      	cmp	r5, r9
 8000a42:	d11a      	bne.n	8000a7a <_printf_common+0xd6>
 8000a44:	2000      	movs	r0, #0
 8000a46:	e008      	b.n	8000a5a <_printf_common+0xb6>
 8000a48:	2301      	movs	r3, #1
 8000a4a:	4652      	mov	r2, sl
 8000a4c:	4639      	mov	r1, r7
 8000a4e:	4630      	mov	r0, r6
 8000a50:	47c0      	blx	r8
 8000a52:	3001      	adds	r0, #1
 8000a54:	d103      	bne.n	8000a5e <_printf_common+0xba>
 8000a56:	f04f 30ff 	mov.w	r0, #4294967295	; 0xffffffff
 8000a5a:	e8bd 87f0 	ldmia.w	sp!, {r4, r5, r6, r7, r8, r9, sl, pc}
 8000a5e:	3501      	adds	r5, #1
 8000a60:	e7c3      	b.n	80009ea <_printf_common+0x46>
 8000a62:	18e1      	adds	r1, r4, r3
 8000a64:	1c5a      	adds	r2, r3, #1
 8000a66:	2030      	movs	r0, #48	; 0x30
 8000a68:	f881 0043 	strb.w	r0, [r1, #67]	; 0x43
 8000a6c:	4422      	add	r2, r4
 8000a6e:	f894 1045 	ldrb.w	r1, [r4, #69]	; 0x45
 8000a72:	f882 1043 	strb.w	r1, [r2, #67]	; 0x43
 8000a76:	3302      	adds	r3, #2
 8000a78:	e7c5      	b.n	8000a06 <_printf_common+0x62>
 8000a7a:	2301      	movs	r3, #1
 8000a7c:	4622      	mov	r2, r4
 8000a7e:	4639      	mov	r1, r7
 8000a80:	4630      	mov	r0, r6
 8000a82:	47c0      	blx	r8
 8000a84:	3001      	adds	r0, #1
 8000a86:	d0e6      	beq.n	8000a56 <_printf_common+0xb2>
 8000a88:	f109 0901 	add.w	r9, r9, #1
 8000a8c:	e7d8      	b.n	8000a40 <_printf_common+0x9c>
	...

08000a90 <_printf_i>:
 8000a90:	e92d 43f0 	stmdb	sp!, {r4, r5, r6, r7, r8, r9, lr}
 8000a94:	f101 0c43 	add.w	ip, r1, #67	; 0x43
 8000a98:	460c      	mov	r4, r1
 8000a9a:	7e09      	ldrb	r1, [r1, #24]
 8000a9c:	b085      	sub	sp, #20
 8000a9e:	296e      	cmp	r1, #110	; 0x6e
 8000aa0:	4617      	mov	r7, r2
 8000aa2:	4606      	mov	r6, r0
 8000aa4:	4698      	mov	r8, r3
 8000aa6:	9a0c      	ldr	r2, [sp, #48]	; 0x30
 8000aa8:	f000 80b3 	beq.w	8000c12 <_printf_i+0x182>
 8000aac:	d822      	bhi.n	8000af4 <_printf_i+0x64>
 8000aae:	2963      	cmp	r1, #99	; 0x63
 8000ab0:	d036      	beq.n	8000b20 <_printf_i+0x90>
 8000ab2:	d80a      	bhi.n	8000aca <_printf_i+0x3a>
 8000ab4:	2900      	cmp	r1, #0
 8000ab6:	f000 80b9 	beq.w	8000c2c <_printf_i+0x19c>
 8000aba:	2958      	cmp	r1, #88	; 0x58
 8000abc:	f000 8083 	beq.w	8000bc6 <_printf_i+0x136>
 8000ac0:	f104 0542 	add.w	r5, r4, #66	; 0x42
 8000ac4:	f884 1042 	strb.w	r1, [r4, #66]	; 0x42
 8000ac8:	e032      	b.n	8000b30 <_printf_i+0xa0>
 8000aca:	2964      	cmp	r1, #100	; 0x64
 8000acc:	d001      	beq.n	8000ad2 <_printf_i+0x42>
 8000ace:	2969      	cmp	r1, #105	; 0x69
 8000ad0:	d1f6      	bne.n	8000ac0 <_printf_i+0x30>
 8000ad2:	6820      	ldr	r0, [r4, #0]
 8000ad4:	6813      	ldr	r3, [r2, #0]
 8000ad6:	0605      	lsls	r5, r0, #24
 8000ad8:	f103 0104 	add.w	r1, r3, #4
 8000adc:	d52a      	bpl.n	8000b34 <_printf_i+0xa4>
 8000ade:	681b      	ldr	r3, [r3, #0]
 8000ae0:	6011      	str	r1, [r2, #0]
 8000ae2:	2b00      	cmp	r3, #0
 8000ae4:	da03      	bge.n	8000aee <_printf_i+0x5e>
 8000ae6:	222d      	movs	r2, #45	; 0x2d
 8000ae8:	425b      	negs	r3, r3
 8000aea:	f884 2043 	strb.w	r2, [r4, #67]	; 0x43
 8000aee:	486f      	ldr	r0, [pc, #444]	; (8000cac <_printf_i+0x21c>)
 8000af0:	220a      	movs	r2, #10
 8000af2:	e039      	b.n	8000b68 <_printf_i+0xd8>
 8000af4:	2973      	cmp	r1, #115	; 0x73
 8000af6:	f000 809d 	beq.w	8000c34 <_printf_i+0x1a4>
 8000afa:	d808      	bhi.n	8000b0e <_printf_i+0x7e>
 8000afc:	296f      	cmp	r1, #111	; 0x6f
 8000afe:	d020      	beq.n	8000b42 <_printf_i+0xb2>
 8000b00:	2970      	cmp	r1, #112	; 0x70
 8000b02:	d1dd      	bne.n	8000ac0 <_printf_i+0x30>
 8000b04:	6823      	ldr	r3, [r4, #0]
 8000b06:	f043 0320 	orr.w	r3, r3, #32
 8000b0a:	6023      	str	r3, [r4, #0]
 8000b0c:	e003      	b.n	8000b16 <_printf_i+0x86>
 8000b0e:	2975      	cmp	r1, #117	; 0x75
 8000b10:	d017      	beq.n	8000b42 <_printf_i+0xb2>
 8000b12:	2978      	cmp	r1, #120	; 0x78
 8000b14:	d1d4      	bne.n	8000ac0 <_printf_i+0x30>
 8000b16:	2378      	movs	r3, #120	; 0x78
 8000b18:	f884 3045 	strb.w	r3, [r4, #69]	; 0x45
 8000b1c:	4864      	ldr	r0, [pc, #400]	; (8000cb0 <_printf_i+0x220>)
 8000b1e:	e055      	b.n	8000bcc <_printf_i+0x13c>
 8000b20:	6813      	ldr	r3, [r2, #0]
 8000b22:	1d19      	adds	r1, r3, #4
 8000b24:	681b      	ldr	r3, [r3, #0]
 8000b26:	6011      	str	r1, [r2, #0]
 8000b28:	f104 0542 	add.w	r5, r4, #66	; 0x42
 8000b2c:	f884 3042 	strb.w	r3, [r4, #66]	; 0x42
 8000b30:	2301      	movs	r3, #1
 8000b32:	e08c      	b.n	8000c4e <_printf_i+0x1be>
 8000b34:	681b      	ldr	r3, [r3, #0]
 8000b36:	6011      	str	r1, [r2, #0]
 8000b38:	f010 0f40 	tst.w	r0, #64	; 0x40
 8000b3c:	bf18      	it	ne
 8000b3e:	b21b      	sxthne	r3, r3
 8000b40:	e7cf      	b.n	8000ae2 <_printf_i+0x52>
 8000b42:	6813      	ldr	r3, [r2, #0]
 8000b44:	6825      	ldr	r5, [r4, #0]
 8000b46:	1d18      	adds	r0, r3, #4
 8000b48:	6010      	str	r0, [r2, #0]
 8000b4a:	0628      	lsls	r0, r5, #24
 8000b4c:	d501      	bpl.n	8000b52 <_printf_i+0xc2>
 8000b4e:	681b      	ldr	r3, [r3, #0]
 8000b50:	e002      	b.n	8000b58 <_printf_i+0xc8>
 8000b52:	0668      	lsls	r0, r5, #25
 8000b54:	d5fb      	bpl.n	8000b4e <_printf_i+0xbe>
 8000b56:	881b      	ldrh	r3, [r3, #0]
 8000b58:	4854      	ldr	r0, [pc, #336]	; (8000cac <_printf_i+0x21c>)
 8000b5a:	296f      	cmp	r1, #111	; 0x6f
 8000b5c:	bf14      	ite	ne
 8000b5e:	220a      	movne	r2, #10
 8000b60:	2208      	moveq	r2, #8
 8000b62:	2100      	movs	r1, #0
 8000b64:	f884 1043 	strb.w	r1, [r4, #67]	; 0x43
 8000b68:	6865      	ldr	r5, [r4, #4]
 8000b6a:	60a5      	str	r5, [r4, #8]
 8000b6c:	2d00      	cmp	r5, #0
 8000b6e:	f2c0 8095 	blt.w	8000c9c <_printf_i+0x20c>
 8000b72:	6821      	ldr	r1, [r4, #0]
 8000b74:	f021 0104 	bic.w	r1, r1, #4
 8000b78:	6021      	str	r1, [r4, #0]
 8000b7a:	2b00      	cmp	r3, #0
 8000b7c:	d13d      	bne.n	8000bfa <_printf_i+0x16a>
 8000b7e:	2d00      	cmp	r5, #0
 8000b80:	f040 808e 	bne.w	8000ca0 <_printf_i+0x210>
 8000b84:	4665      	mov	r5, ip
 8000b86:	2a08      	cmp	r2, #8
 8000b88:	d10b      	bne.n	8000ba2 <_printf_i+0x112>
 8000b8a:	6823      	ldr	r3, [r4, #0]
 8000b8c:	07db      	lsls	r3, r3, #31
 8000b8e:	d508      	bpl.n	8000ba2 <_printf_i+0x112>
 8000b90:	6923      	ldr	r3, [r4, #16]
 8000b92:	6862      	ldr	r2, [r4, #4]
 8000b94:	429a      	cmp	r2, r3
 8000b96:	bfde      	ittt	le
 8000b98:	2330      	movle	r3, #48	; 0x30
 8000b9a:	f805 3c01 	strble.w	r3, [r5, #-1]
 8000b9e:	f105 35ff 	addle.w	r5, r5, #4294967295	; 0xffffffff
 8000ba2:	ebac 0305 	sub.w	r3, ip, r5
 8000ba6:	6123      	str	r3, [r4, #16]
 8000ba8:	f8cd 8000 	str.w	r8, [sp]
 8000bac:	463b      	mov	r3, r7
 8000bae:	aa03      	add	r2, sp, #12
 8000bb0:	4621      	mov	r1, r4
 8000bb2:	4630      	mov	r0, r6
 8000bb4:	f7ff fef6 	bl	80009a4 <_printf_common>
 8000bb8:	3001      	adds	r0, #1
 8000bba:	d14d      	bne.n	8000c58 <_printf_i+0x1c8>
 8000bbc:	f04f 30ff 	mov.w	r0, #4294967295	; 0xffffffff
 8000bc0:	b005      	add	sp, #20
 8000bc2:	e8bd 83f0 	ldmia.w	sp!, {r4, r5, r6, r7, r8, r9, pc}
 8000bc6:	4839      	ldr	r0, [pc, #228]	; (8000cac <_printf_i+0x21c>)
 8000bc8:	f884 1045 	strb.w	r1, [r4, #69]	; 0x45
 8000bcc:	6813      	ldr	r3, [r2, #0]
 8000bce:	6821      	ldr	r1, [r4, #0]
 8000bd0:	1d1d      	adds	r5, r3, #4
 8000bd2:	681b      	ldr	r3, [r3, #0]
 8000bd4:	6015      	str	r5, [r2, #0]
 8000bd6:	060a      	lsls	r2, r1, #24
 8000bd8:	d50b      	bpl.n	8000bf2 <_printf_i+0x162>
 8000bda:	07ca      	lsls	r2, r1, #31
 8000bdc:	bf44      	itt	mi
 8000bde:	f041 0120 	orrmi.w	r1, r1, #32
 8000be2:	6021      	strmi	r1, [r4, #0]
 8000be4:	b91b      	cbnz	r3, 8000bee <_printf_i+0x15e>
 8000be6:	6822      	ldr	r2, [r4, #0]
 8000be8:	f022 0220 	bic.w	r2, r2, #32
 8000bec:	6022      	str	r2, [r4, #0]
 8000bee:	2210      	movs	r2, #16
 8000bf0:	e7b7      	b.n	8000b62 <_printf_i+0xd2>
 8000bf2:	064d      	lsls	r5, r1, #25
 8000bf4:	bf48      	it	mi
 8000bf6:	b29b      	uxthmi	r3, r3
 8000bf8:	e7ef      	b.n	8000bda <_printf_i+0x14a>
 8000bfa:	4665      	mov	r5, ip
 8000bfc:	fbb3 f1f2 	udiv	r1, r3, r2
 8000c00:	fb02 3311 	mls	r3, r2, r1, r3
 8000c04:	5cc3      	ldrb	r3, [r0, r3]
 8000c06:	f805 3d01 	strb.w	r3, [r5, #-1]!
 8000c0a:	460b      	mov	r3, r1
 8000c0c:	2900      	cmp	r1, #0
 8000c0e:	d1f5      	bne.n	8000bfc <_printf_i+0x16c>
 8000c10:	e7b9      	b.n	8000b86 <_printf_i+0xf6>
 8000c12:	6813      	ldr	r3, [r2, #0]
 8000c14:	6825      	ldr	r5, [r4, #0]
 8000c16:	6961      	ldr	r1, [r4, #20]
 8000c18:	1d18      	adds	r0, r3, #4
 8000c1a:	6010      	str	r0, [r2, #0]
 8000c1c:	0628      	lsls	r0, r5, #24
 8000c1e:	681b      	ldr	r3, [r3, #0]
 8000c20:	d501      	bpl.n	8000c26 <_printf_i+0x196>
 8000c22:	6019      	str	r1, [r3, #0]
 8000c24:	e002      	b.n	8000c2c <_printf_i+0x19c>
 8000c26:	066a      	lsls	r2, r5, #25
 8000c28:	d5fb      	bpl.n	8000c22 <_printf_i+0x192>
 8000c2a:	8019      	strh	r1, [r3, #0]
 8000c2c:	2300      	movs	r3, #0
 8000c2e:	6123      	str	r3, [r4, #16]
 8000c30:	4665      	mov	r5, ip
 8000c32:	e7b9      	b.n	8000ba8 <_printf_i+0x118>
 8000c34:	6813      	ldr	r3, [r2, #0]
 8000c36:	1d19      	adds	r1, r3, #4
 8000c38:	6011      	str	r1, [r2, #0]
 8000c3a:	681d      	ldr	r5, [r3, #0]
 8000c3c:	6862      	ldr	r2, [r4, #4]
 8000c3e:	2100      	movs	r1, #0
 8000c40:	4628      	mov	r0, r5
 8000c42:	f7ff fad5 	bl	80001f0 <memchr>
 8000c46:	b108      	cbz	r0, 8000c4c <_printf_i+0x1bc>
 8000c48:	1b40      	subs	r0, r0, r5
 8000c4a:	6060      	str	r0, [r4, #4]
 8000c4c:	6863      	ldr	r3, [r4, #4]
 8000c4e:	6123      	str	r3, [r4, #16]
 8000c50:	2300      	movs	r3, #0
 8000c52:	f884 3043 	strb.w	r3, [r4, #67]	; 0x43
 8000c56:	e7a7      	b.n	8000ba8 <_printf_i+0x118>
 8000c58:	6923      	ldr	r3, [r4, #16]
 8000c5a:	462a      	mov	r2, r5
 8000c5c:	4639      	mov	r1, r7
 8000c5e:	4630      	mov	r0, r6
 8000c60:	47c0      	blx	r8
 8000c62:	3001      	adds	r0, #1
 8000c64:	d0aa      	beq.n	8000bbc <_printf_i+0x12c>
 8000c66:	6823      	ldr	r3, [r4, #0]
 8000c68:	079b      	lsls	r3, r3, #30
 8000c6a:	d413      	bmi.n	8000c94 <_printf_i+0x204>
 8000c6c:	68e0      	ldr	r0, [r4, #12]
 8000c6e:	9b03      	ldr	r3, [sp, #12]
 8000c70:	4298      	cmp	r0, r3
 8000c72:	bfb8      	it	lt
 8000c74:	4618      	movlt	r0, r3
 8000c76:	e7a3      	b.n	8000bc0 <_printf_i+0x130>
 8000c78:	2301      	movs	r3, #1
 8000c7a:	464a      	mov	r2, r9
 8000c7c:	4639      	mov	r1, r7
 8000c7e:	4630      	mov	r0, r6
 8000c80:	47c0      	blx	r8
 8000c82:	3001      	adds	r0, #1
 8000c84:	d09a      	beq.n	8000bbc <_printf_i+0x12c>
 8000c86:	3501      	adds	r5, #1
 8000c88:	68e3      	ldr	r3, [r4, #12]
 8000c8a:	9a03      	ldr	r2, [sp, #12]
 8000c8c:	1a9b      	subs	r3, r3, r2
 8000c8e:	42ab      	cmp	r3, r5
 8000c90:	dcf2      	bgt.n	8000c78 <_printf_i+0x1e8>
 8000c92:	e7eb      	b.n	8000c6c <_printf_i+0x1dc>
 8000c94:	2500      	movs	r5, #0
 8000c96:	f104 0919 	add.w	r9, r4, #25
 8000c9a:	e7f5      	b.n	8000c88 <_printf_i+0x1f8>
 8000c9c:	2b00      	cmp	r3, #0
 8000c9e:	d1ac      	bne.n	8000bfa <_printf_i+0x16a>
 8000ca0:	7803      	ldrb	r3, [r0, #0]
 8000ca2:	f884 3042 	strb.w	r3, [r4, #66]	; 0x42
 8000ca6:	f104 0542 	add.w	r5, r4, #66	; 0x42
 8000caa:	e76c      	b.n	8000b86 <_printf_i+0xf6>
 8000cac:	08001311 	.word	0x08001311
 8000cb0:	08001322 	.word	0x08001322

08000cb4 <_sbrk_r>:
 8000cb4:	b538      	push	{r3, r4, r5, lr}
 8000cb6:	4c06      	ldr	r4, [pc, #24]	; (8000cd0 <_sbrk_r+0x1c>)
 8000cb8:	2300      	movs	r3, #0
 8000cba:	4605      	mov	r5, r0
 8000cbc:	4608      	mov	r0, r1
 8000cbe:	6023      	str	r3, [r4, #0]
 8000cc0:	f7ff fb6c 	bl	800039c <_sbrk>
 8000cc4:	1c43      	adds	r3, r0, #1
 8000cc6:	d102      	bne.n	8000cce <_sbrk_r+0x1a>
 8000cc8:	6823      	ldr	r3, [r4, #0]
 8000cca:	b103      	cbz	r3, 8000cce <_sbrk_r+0x1a>
 8000ccc:	602b      	str	r3, [r5, #0]
 8000cce:	bd38      	pop	{r3, r4, r5, pc}
 8000cd0:	20000098 	.word	0x20000098

08000cd4 <__sread>:
 8000cd4:	b510      	push	{r4, lr}
 8000cd6:	460c      	mov	r4, r1
 8000cd8:	f9b1 100e 	ldrsh.w	r1, [r1, #14]
 8000cdc:	f000 fa96 	bl	800120c <_read_r>
 8000ce0:	2800      	cmp	r0, #0
 8000ce2:	bfab      	itete	ge
 8000ce4:	6d63      	ldrge	r3, [r4, #84]	; 0x54
 8000ce6:	89a3      	ldrhlt	r3, [r4, #12]
 8000ce8:	181b      	addge	r3, r3, r0
 8000cea:	f423 5380 	biclt.w	r3, r3, #4096	; 0x1000
 8000cee:	bfac      	ite	ge
 8000cf0:	6563      	strge	r3, [r4, #84]	; 0x54
 8000cf2:	81a3      	strhlt	r3, [r4, #12]
 8000cf4:	bd10      	pop	{r4, pc}

08000cf6 <__swrite>:
 8000cf6:	e92d 41f0 	stmdb	sp!, {r4, r5, r6, r7, r8, lr}
 8000cfa:	461f      	mov	r7, r3
 8000cfc:	898b      	ldrh	r3, [r1, #12]
 8000cfe:	05db      	lsls	r3, r3, #23
 8000d00:	4605      	mov	r5, r0
 8000d02:	460c      	mov	r4, r1
 8000d04:	4616      	mov	r6, r2
 8000d06:	d505      	bpl.n	8000d14 <__swrite+0x1e>
 8000d08:	2302      	movs	r3, #2
 8000d0a:	2200      	movs	r2, #0
 8000d0c:	f9b1 100e 	ldrsh.w	r1, [r1, #14]
 8000d10:	f000 f9b6 	bl	8001080 <_lseek_r>
 8000d14:	89a3      	ldrh	r3, [r4, #12]
 8000d16:	f9b4 100e 	ldrsh.w	r1, [r4, #14]
 8000d1a:	f423 5380 	bic.w	r3, r3, #4096	; 0x1000
 8000d1e:	81a3      	strh	r3, [r4, #12]
 8000d20:	4632      	mov	r2, r6
 8000d22:	463b      	mov	r3, r7
 8000d24:	4628      	mov	r0, r5
 8000d26:	e8bd 41f0 	ldmia.w	sp!, {r4, r5, r6, r7, r8, lr}
 8000d2a:	f000 b869 	b.w	8000e00 <_write_r>

08000d2e <__sseek>:
 8000d2e:	b510      	push	{r4, lr}
 8000d30:	460c      	mov	r4, r1
 8000d32:	f9b1 100e 	ldrsh.w	r1, [r1, #14]
 8000d36:	f000 f9a3 	bl	8001080 <_lseek_r>
 8000d3a:	1c43      	adds	r3, r0, #1
 8000d3c:	89a3      	ldrh	r3, [r4, #12]
 8000d3e:	bf15      	itete	ne
 8000d40:	6560      	strne	r0, [r4, #84]	; 0x54
 8000d42:	f423 5380 	biceq.w	r3, r3, #4096	; 0x1000
 8000d46:	f443 5380 	orrne.w	r3, r3, #4096	; 0x1000
 8000d4a:	81a3      	strheq	r3, [r4, #12]
 8000d4c:	bf18      	it	ne
 8000d4e:	81a3      	strhne	r3, [r4, #12]
 8000d50:	bd10      	pop	{r4, pc}

08000d52 <__sclose>:
 8000d52:	f9b1 100e 	ldrsh.w	r1, [r1, #14]
 8000d56:	f000 b8d3 	b.w	8000f00 <_close_r>
	...

08000d5c <__swbuf_r>:
 8000d5c:	b5f8      	push	{r3, r4, r5, r6, r7, lr}
 8000d5e:	460e      	mov	r6, r1
 8000d60:	4614      	mov	r4, r2
 8000d62:	4605      	mov	r5, r0
 8000d64:	b118      	cbz	r0, 8000d6e <__swbuf_r+0x12>
 8000d66:	6983      	ldr	r3, [r0, #24]
 8000d68:	b90b      	cbnz	r3, 8000d6e <__swbuf_r+0x12>
 8000d6a:	f7ff fbf7 	bl	800055c <__sinit>
 8000d6e:	4b21      	ldr	r3, [pc, #132]	; (8000df4 <__swbuf_r+0x98>)
 8000d70:	429c      	cmp	r4, r3
 8000d72:	d12a      	bne.n	8000dca <__swbuf_r+0x6e>
 8000d74:	686c      	ldr	r4, [r5, #4]
 8000d76:	69a3      	ldr	r3, [r4, #24]
 8000d78:	60a3      	str	r3, [r4, #8]
 8000d7a:	89a3      	ldrh	r3, [r4, #12]
 8000d7c:	071a      	lsls	r2, r3, #28
 8000d7e:	d52e      	bpl.n	8000dde <__swbuf_r+0x82>
 8000d80:	6923      	ldr	r3, [r4, #16]
 8000d82:	b363      	cbz	r3, 8000dde <__swbuf_r+0x82>
 8000d84:	6923      	ldr	r3, [r4, #16]
 8000d86:	6820      	ldr	r0, [r4, #0]
 8000d88:	1ac0      	subs	r0, r0, r3
 8000d8a:	6963      	ldr	r3, [r4, #20]
 8000d8c:	b2f6      	uxtb	r6, r6
 8000d8e:	4283      	cmp	r3, r0
 8000d90:	4637      	mov	r7, r6
 8000d92:	dc04      	bgt.n	8000d9e <__swbuf_r+0x42>
 8000d94:	4621      	mov	r1, r4
 8000d96:	4628      	mov	r0, r5
 8000d98:	f000 f948 	bl	800102c <_fflush_r>
 8000d9c:	bb28      	cbnz	r0, 8000dea <__swbuf_r+0x8e>
 8000d9e:	68a3      	ldr	r3, [r4, #8]
 8000da0:	3b01      	subs	r3, #1
 8000da2:	60a3      	str	r3, [r4, #8]
 8000da4:	6823      	ldr	r3, [r4, #0]
 8000da6:	1c5a      	adds	r2, r3, #1
 8000da8:	6022      	str	r2, [r4, #0]
 8000daa:	701e      	strb	r6, [r3, #0]
 8000dac:	6963      	ldr	r3, [r4, #20]
 8000dae:	3001      	adds	r0, #1
 8000db0:	4283      	cmp	r3, r0
 8000db2:	d004      	beq.n	8000dbe <__swbuf_r+0x62>
 8000db4:	89a3      	ldrh	r3, [r4, #12]
 8000db6:	07db      	lsls	r3, r3, #31
 8000db8:	d519      	bpl.n	8000dee <__swbuf_r+0x92>
 8000dba:	2e0a      	cmp	r6, #10
 8000dbc:	d117      	bne.n	8000dee <__swbuf_r+0x92>
 8000dbe:	4621      	mov	r1, r4
 8000dc0:	4628      	mov	r0, r5
 8000dc2:	f000 f933 	bl	800102c <_fflush_r>
 8000dc6:	b190      	cbz	r0, 8000dee <__swbuf_r+0x92>
 8000dc8:	e00f      	b.n	8000dea <__swbuf_r+0x8e>
 8000dca:	4b0b      	ldr	r3, [pc, #44]	; (8000df8 <__swbuf_r+0x9c>)
 8000dcc:	429c      	cmp	r4, r3
 8000dce:	d101      	bne.n	8000dd4 <__swbuf_r+0x78>
 8000dd0:	68ac      	ldr	r4, [r5, #8]
 8000dd2:	e7d0      	b.n	8000d76 <__swbuf_r+0x1a>
 8000dd4:	4b09      	ldr	r3, [pc, #36]	; (8000dfc <__swbuf_r+0xa0>)
 8000dd6:	429c      	cmp	r4, r3
 8000dd8:	bf08      	it	eq
 8000dda:	68ec      	ldreq	r4, [r5, #12]
 8000ddc:	e7cb      	b.n	8000d76 <__swbuf_r+0x1a>
 8000dde:	4621      	mov	r1, r4
 8000de0:	4628      	mov	r0, r5
 8000de2:	f000 f81f 	bl	8000e24 <__swsetup_r>
 8000de6:	2800      	cmp	r0, #0
 8000de8:	d0cc      	beq.n	8000d84 <__swbuf_r+0x28>
 8000dea:	f04f 37ff 	mov.w	r7, #4294967295	; 0xffffffff
 8000dee:	4638      	mov	r0, r7
 8000df0:	bdf8      	pop	{r3, r4, r5, r6, r7, pc}
 8000df2:	bf00      	nop
 8000df4:	080012c0 	.word	0x080012c0
 8000df8:	080012e0 	.word	0x080012e0
 8000dfc:	080012a0 	.word	0x080012a0

08000e00 <_write_r>:
 8000e00:	b538      	push	{r3, r4, r5, lr}
 8000e02:	4c07      	ldr	r4, [pc, #28]	; (8000e20 <_write_r+0x20>)
 8000e04:	4605      	mov	r5, r0
 8000e06:	4608      	mov	r0, r1
 8000e08:	4611      	mov	r1, r2
 8000e0a:	2200      	movs	r2, #0
 8000e0c:	6022      	str	r2, [r4, #0]
 8000e0e:	461a      	mov	r2, r3
 8000e10:	f7ff fa73 	bl	80002fa <_write>
 8000e14:	1c43      	adds	r3, r0, #1
 8000e16:	d102      	bne.n	8000e1e <_write_r+0x1e>
 8000e18:	6823      	ldr	r3, [r4, #0]
 8000e1a:	b103      	cbz	r3, 8000e1e <_write_r+0x1e>
 8000e1c:	602b      	str	r3, [r5, #0]
 8000e1e:	bd38      	pop	{r3, r4, r5, pc}
 8000e20:	20000098 	.word	0x20000098

08000e24 <__swsetup_r>:
 8000e24:	4b32      	ldr	r3, [pc, #200]	; (8000ef0 <__swsetup_r+0xcc>)
 8000e26:	b570      	push	{r4, r5, r6, lr}
 8000e28:	681d      	ldr	r5, [r3, #0]
 8000e2a:	4606      	mov	r6, r0
 8000e2c:	460c      	mov	r4, r1
 8000e2e:	b125      	cbz	r5, 8000e3a <__swsetup_r+0x16>
 8000e30:	69ab      	ldr	r3, [r5, #24]
 8000e32:	b913      	cbnz	r3, 8000e3a <__swsetup_r+0x16>
 8000e34:	4628      	mov	r0, r5
 8000e36:	f7ff fb91 	bl	800055c <__sinit>
 8000e3a:	4b2e      	ldr	r3, [pc, #184]	; (8000ef4 <__swsetup_r+0xd0>)
 8000e3c:	429c      	cmp	r4, r3
 8000e3e:	d10f      	bne.n	8000e60 <__swsetup_r+0x3c>
 8000e40:	686c      	ldr	r4, [r5, #4]
 8000e42:	f9b4 300c 	ldrsh.w	r3, [r4, #12]
 8000e46:	b29a      	uxth	r2, r3
 8000e48:	0715      	lsls	r5, r2, #28
 8000e4a:	d42c      	bmi.n	8000ea6 <__swsetup_r+0x82>
 8000e4c:	06d0      	lsls	r0, r2, #27
 8000e4e:	d411      	bmi.n	8000e74 <__swsetup_r+0x50>
 8000e50:	2209      	movs	r2, #9
 8000e52:	6032      	str	r2, [r6, #0]
 8000e54:	f043 0340 	orr.w	r3, r3, #64	; 0x40
 8000e58:	81a3      	strh	r3, [r4, #12]
 8000e5a:	f04f 30ff 	mov.w	r0, #4294967295	; 0xffffffff
 8000e5e:	e03e      	b.n	8000ede <__swsetup_r+0xba>
 8000e60:	4b25      	ldr	r3, [pc, #148]	; (8000ef8 <__swsetup_r+0xd4>)
 8000e62:	429c      	cmp	r4, r3
 8000e64:	d101      	bne.n	8000e6a <__swsetup_r+0x46>
 8000e66:	68ac      	ldr	r4, [r5, #8]
 8000e68:	e7eb      	b.n	8000e42 <__swsetup_r+0x1e>
 8000e6a:	4b24      	ldr	r3, [pc, #144]	; (8000efc <__swsetup_r+0xd8>)
 8000e6c:	429c      	cmp	r4, r3
 8000e6e:	bf08      	it	eq
 8000e70:	68ec      	ldreq	r4, [r5, #12]
 8000e72:	e7e6      	b.n	8000e42 <__swsetup_r+0x1e>
 8000e74:	0751      	lsls	r1, r2, #29
 8000e76:	d512      	bpl.n	8000e9e <__swsetup_r+0x7a>
 8000e78:	6b61      	ldr	r1, [r4, #52]	; 0x34
 8000e7a:	b141      	cbz	r1, 8000e8e <__swsetup_r+0x6a>
 8000e7c:	f104 0344 	add.w	r3, r4, #68	; 0x44
 8000e80:	4299      	cmp	r1, r3
 8000e82:	d002      	beq.n	8000e8a <__swsetup_r+0x66>
 8000e84:	4630      	mov	r0, r6
 8000e86:	f000 f973 	bl	8001170 <_free_r>
 8000e8a:	2300      	movs	r3, #0
 8000e8c:	6363      	str	r3, [r4, #52]	; 0x34
 8000e8e:	89a3      	ldrh	r3, [r4, #12]
 8000e90:	f023 0324 	bic.w	r3, r3, #36	; 0x24
 8000e94:	81a3      	strh	r3, [r4, #12]
 8000e96:	2300      	movs	r3, #0
 8000e98:	6063      	str	r3, [r4, #4]
 8000e9a:	6923      	ldr	r3, [r4, #16]
 8000e9c:	6023      	str	r3, [r4, #0]
 8000e9e:	89a3      	ldrh	r3, [r4, #12]
 8000ea0:	f043 0308 	orr.w	r3, r3, #8
 8000ea4:	81a3      	strh	r3, [r4, #12]
 8000ea6:	6923      	ldr	r3, [r4, #16]
 8000ea8:	b94b      	cbnz	r3, 8000ebe <__swsetup_r+0x9a>
 8000eaa:	89a3      	ldrh	r3, [r4, #12]
 8000eac:	f403 7320 	and.w	r3, r3, #640	; 0x280
 8000eb0:	f5b3 7f00 	cmp.w	r3, #512	; 0x200
 8000eb4:	d003      	beq.n	8000ebe <__swsetup_r+0x9a>
 8000eb6:	4621      	mov	r1, r4
 8000eb8:	4630      	mov	r0, r6
 8000eba:	f000 f917 	bl	80010ec <__smakebuf_r>
 8000ebe:	89a2      	ldrh	r2, [r4, #12]
 8000ec0:	f012 0301 	ands.w	r3, r2, #1
 8000ec4:	d00c      	beq.n	8000ee0 <__swsetup_r+0xbc>
 8000ec6:	2300      	movs	r3, #0
 8000ec8:	60a3      	str	r3, [r4, #8]
 8000eca:	6963      	ldr	r3, [r4, #20]
 8000ecc:	425b      	negs	r3, r3
 8000ece:	61a3      	str	r3, [r4, #24]
 8000ed0:	6923      	ldr	r3, [r4, #16]
 8000ed2:	b953      	cbnz	r3, 8000eea <__swsetup_r+0xc6>
 8000ed4:	f9b4 300c 	ldrsh.w	r3, [r4, #12]
 8000ed8:	f013 0080 	ands.w	r0, r3, #128	; 0x80
 8000edc:	d1ba      	bne.n	8000e54 <__swsetup_r+0x30>
 8000ede:	bd70      	pop	{r4, r5, r6, pc}
 8000ee0:	0792      	lsls	r2, r2, #30
 8000ee2:	bf58      	it	pl
 8000ee4:	6963      	ldrpl	r3, [r4, #20]
 8000ee6:	60a3      	str	r3, [r4, #8]
 8000ee8:	e7f2      	b.n	8000ed0 <__swsetup_r+0xac>
 8000eea:	2000      	movs	r0, #0
 8000eec:	e7f7      	b.n	8000ede <__swsetup_r+0xba>
 8000eee:	bf00      	nop
 8000ef0:	20000008 	.word	0x20000008
 8000ef4:	080012c0 	.word	0x080012c0
 8000ef8:	080012e0 	.word	0x080012e0
 8000efc:	080012a0 	.word	0x080012a0

08000f00 <_close_r>:
 8000f00:	b538      	push	{r3, r4, r5, lr}
 8000f02:	4c06      	ldr	r4, [pc, #24]	; (8000f1c <_close_r+0x1c>)
 8000f04:	2300      	movs	r3, #0
 8000f06:	4605      	mov	r5, r0
 8000f08:	4608      	mov	r0, r1
 8000f0a:	6023      	str	r3, [r4, #0]
 8000f0c:	f7ff fa11 	bl	8000332 <_close>
 8000f10:	1c43      	adds	r3, r0, #1
 8000f12:	d102      	bne.n	8000f1a <_close_r+0x1a>
 8000f14:	6823      	ldr	r3, [r4, #0]
 8000f16:	b103      	cbz	r3, 8000f1a <_close_r+0x1a>
 8000f18:	602b      	str	r3, [r5, #0]
 8000f1a:	bd38      	pop	{r3, r4, r5, pc}
 8000f1c:	20000098 	.word	0x20000098

08000f20 <__sflush_r>:
 8000f20:	898a      	ldrh	r2, [r1, #12]
 8000f22:	e92d 41f0 	stmdb	sp!, {r4, r5, r6, r7, r8, lr}
 8000f26:	4605      	mov	r5, r0
 8000f28:	0710      	lsls	r0, r2, #28
 8000f2a:	460c      	mov	r4, r1
 8000f2c:	d458      	bmi.n	8000fe0 <__sflush_r+0xc0>
 8000f2e:	684b      	ldr	r3, [r1, #4]
 8000f30:	2b00      	cmp	r3, #0
 8000f32:	dc05      	bgt.n	8000f40 <__sflush_r+0x20>
 8000f34:	6c0b      	ldr	r3, [r1, #64]	; 0x40
 8000f36:	2b00      	cmp	r3, #0
 8000f38:	dc02      	bgt.n	8000f40 <__sflush_r+0x20>
 8000f3a:	2000      	movs	r0, #0
 8000f3c:	e8bd 81f0 	ldmia.w	sp!, {r4, r5, r6, r7, r8, pc}
 8000f40:	6ae6      	ldr	r6, [r4, #44]	; 0x2c
 8000f42:	2e00      	cmp	r6, #0
 8000f44:	d0f9      	beq.n	8000f3a <__sflush_r+0x1a>
 8000f46:	2300      	movs	r3, #0
 8000f48:	f412 5280 	ands.w	r2, r2, #4096	; 0x1000
 8000f4c:	682f      	ldr	r7, [r5, #0]
 8000f4e:	6a21      	ldr	r1, [r4, #32]
 8000f50:	602b      	str	r3, [r5, #0]
 8000f52:	d032      	beq.n	8000fba <__sflush_r+0x9a>
 8000f54:	6d60      	ldr	r0, [r4, #84]	; 0x54
 8000f56:	89a3      	ldrh	r3, [r4, #12]
 8000f58:	075a      	lsls	r2, r3, #29
 8000f5a:	d505      	bpl.n	8000f68 <__sflush_r+0x48>
 8000f5c:	6863      	ldr	r3, [r4, #4]
 8000f5e:	1ac0      	subs	r0, r0, r3
 8000f60:	6b63      	ldr	r3, [r4, #52]	; 0x34
 8000f62:	b10b      	cbz	r3, 8000f68 <__sflush_r+0x48>
 8000f64:	6c23      	ldr	r3, [r4, #64]	; 0x40
 8000f66:	1ac0      	subs	r0, r0, r3
 8000f68:	2300      	movs	r3, #0
 8000f6a:	4602      	mov	r2, r0
 8000f6c:	6ae6      	ldr	r6, [r4, #44]	; 0x2c
 8000f6e:	6a21      	ldr	r1, [r4, #32]
 8000f70:	4628      	mov	r0, r5
 8000f72:	47b0      	blx	r6
 8000f74:	1c43      	adds	r3, r0, #1
 8000f76:	89a3      	ldrh	r3, [r4, #12]
 8000f78:	d106      	bne.n	8000f88 <__sflush_r+0x68>
 8000f7a:	6829      	ldr	r1, [r5, #0]
 8000f7c:	291d      	cmp	r1, #29
 8000f7e:	d848      	bhi.n	8001012 <__sflush_r+0xf2>
 8000f80:	4a29      	ldr	r2, [pc, #164]	; (8001028 <__sflush_r+0x108>)
 8000f82:	40ca      	lsrs	r2, r1
 8000f84:	07d6      	lsls	r6, r2, #31
 8000f86:	d544      	bpl.n	8001012 <__sflush_r+0xf2>
 8000f88:	2200      	movs	r2, #0
 8000f8a:	6062      	str	r2, [r4, #4]
 8000f8c:	04d9      	lsls	r1, r3, #19
 8000f8e:	6922      	ldr	r2, [r4, #16]
 8000f90:	6022      	str	r2, [r4, #0]
 8000f92:	d504      	bpl.n	8000f9e <__sflush_r+0x7e>
 8000f94:	1c42      	adds	r2, r0, #1
 8000f96:	d101      	bne.n	8000f9c <__sflush_r+0x7c>
 8000f98:	682b      	ldr	r3, [r5, #0]
 8000f9a:	b903      	cbnz	r3, 8000f9e <__sflush_r+0x7e>
 8000f9c:	6560      	str	r0, [r4, #84]	; 0x54
 8000f9e:	6b61      	ldr	r1, [r4, #52]	; 0x34
 8000fa0:	602f      	str	r7, [r5, #0]
 8000fa2:	2900      	cmp	r1, #0
 8000fa4:	d0c9      	beq.n	8000f3a <__sflush_r+0x1a>
 8000fa6:	f104 0344 	add.w	r3, r4, #68	; 0x44
 8000faa:	4299      	cmp	r1, r3
 8000fac:	d002      	beq.n	8000fb4 <__sflush_r+0x94>
 8000fae:	4628      	mov	r0, r5
 8000fb0:	f000 f8de 	bl	8001170 <_free_r>
 8000fb4:	2000      	movs	r0, #0
 8000fb6:	6360      	str	r0, [r4, #52]	; 0x34
 8000fb8:	e7c0      	b.n	8000f3c <__sflush_r+0x1c>
 8000fba:	2301      	movs	r3, #1
 8000fbc:	4628      	mov	r0, r5
 8000fbe:	47b0      	blx	r6
 8000fc0:	1c41      	adds	r1, r0, #1
 8000fc2:	d1c8      	bne.n	8000f56 <__sflush_r+0x36>
 8000fc4:	682b      	ldr	r3, [r5, #0]
 8000fc6:	2b00      	cmp	r3, #0
 8000fc8:	d0c5      	beq.n	8000f56 <__sflush_r+0x36>
 8000fca:	2b1d      	cmp	r3, #29
 8000fcc:	d001      	beq.n	8000fd2 <__sflush_r+0xb2>
 8000fce:	2b16      	cmp	r3, #22
 8000fd0:	d101      	bne.n	8000fd6 <__sflush_r+0xb6>
 8000fd2:	602f      	str	r7, [r5, #0]
 8000fd4:	e7b1      	b.n	8000f3a <__sflush_r+0x1a>
 8000fd6:	89a3      	ldrh	r3, [r4, #12]
 8000fd8:	f043 0340 	orr.w	r3, r3, #64	; 0x40
 8000fdc:	81a3      	strh	r3, [r4, #12]
 8000fde:	e7ad      	b.n	8000f3c <__sflush_r+0x1c>
 8000fe0:	690f      	ldr	r7, [r1, #16]
 8000fe2:	2f00      	cmp	r7, #0
 8000fe4:	d0a9      	beq.n	8000f3a <__sflush_r+0x1a>
 8000fe6:	0793      	lsls	r3, r2, #30
 8000fe8:	680e      	ldr	r6, [r1, #0]
 8000fea:	bf08      	it	eq
 8000fec:	694b      	ldreq	r3, [r1, #20]
 8000fee:	600f      	str	r7, [r1, #0]
 8000ff0:	bf18      	it	ne
 8000ff2:	2300      	movne	r3, #0
 8000ff4:	eba6 0807 	sub.w	r8, r6, r7
 8000ff8:	608b      	str	r3, [r1, #8]
 8000ffa:	f1b8 0f00 	cmp.w	r8, #0
 8000ffe:	dd9c      	ble.n	8000f3a <__sflush_r+0x1a>
 8001000:	4643      	mov	r3, r8
 8001002:	463a      	mov	r2, r7
 8001004:	6a21      	ldr	r1, [r4, #32]
 8001006:	6aa6      	ldr	r6, [r4, #40]	; 0x28
 8001008:	4628      	mov	r0, r5
 800100a:	47b0      	blx	r6
 800100c:	2800      	cmp	r0, #0
 800100e:	dc06      	bgt.n	800101e <__sflush_r+0xfe>
 8001010:	89a3      	ldrh	r3, [r4, #12]
 8001012:	f043 0340 	orr.w	r3, r3, #64	; 0x40
 8001016:	81a3      	strh	r3, [r4, #12]
 8001018:	f04f 30ff 	mov.w	r0, #4294967295	; 0xffffffff
 800101c:	e78e      	b.n	8000f3c <__sflush_r+0x1c>
 800101e:	4407      	add	r7, r0
 8001020:	eba8 0800 	sub.w	r8, r8, r0
 8001024:	e7e9      	b.n	8000ffa <__sflush_r+0xda>
 8001026:	bf00      	nop
 8001028:	20400001 	.word	0x20400001

0800102c <_fflush_r>:
 800102c:	b538      	push	{r3, r4, r5, lr}
 800102e:	690b      	ldr	r3, [r1, #16]
 8001030:	4605      	mov	r5, r0
 8001032:	460c      	mov	r4, r1
 8001034:	b1db      	cbz	r3, 800106e <_fflush_r+0x42>
 8001036:	b118      	cbz	r0, 8001040 <_fflush_r+0x14>
 8001038:	6983      	ldr	r3, [r0, #24]
 800103a:	b90b      	cbnz	r3, 8001040 <_fflush_r+0x14>
 800103c:	f7ff fa8e 	bl	800055c <__sinit>
 8001040:	4b0c      	ldr	r3, [pc, #48]	; (8001074 <_fflush_r+0x48>)
 8001042:	429c      	cmp	r4, r3
 8001044:	d109      	bne.n	800105a <_fflush_r+0x2e>
 8001046:	686c      	ldr	r4, [r5, #4]
 8001048:	f9b4 300c 	ldrsh.w	r3, [r4, #12]
 800104c:	b17b      	cbz	r3, 800106e <_fflush_r+0x42>
 800104e:	4621      	mov	r1, r4
 8001050:	4628      	mov	r0, r5
 8001052:	e8bd 4038 	ldmia.w	sp!, {r3, r4, r5, lr}
 8001056:	f7ff bf63 	b.w	8000f20 <__sflush_r>
 800105a:	4b07      	ldr	r3, [pc, #28]	; (8001078 <_fflush_r+0x4c>)
 800105c:	429c      	cmp	r4, r3
 800105e:	d101      	bne.n	8001064 <_fflush_r+0x38>
 8001060:	68ac      	ldr	r4, [r5, #8]
 8001062:	e7f1      	b.n	8001048 <_fflush_r+0x1c>
 8001064:	4b05      	ldr	r3, [pc, #20]	; (800107c <_fflush_r+0x50>)
 8001066:	429c      	cmp	r4, r3
 8001068:	bf08      	it	eq
 800106a:	68ec      	ldreq	r4, [r5, #12]
 800106c:	e7ec      	b.n	8001048 <_fflush_r+0x1c>
 800106e:	2000      	movs	r0, #0
 8001070:	bd38      	pop	{r3, r4, r5, pc}
 8001072:	bf00      	nop
 8001074:	080012c0 	.word	0x080012c0
 8001078:	080012e0 	.word	0x080012e0
 800107c:	080012a0 	.word	0x080012a0

08001080 <_lseek_r>:
 8001080:	b538      	push	{r3, r4, r5, lr}
 8001082:	4c07      	ldr	r4, [pc, #28]	; (80010a0 <_lseek_r+0x20>)
 8001084:	4605      	mov	r5, r0
 8001086:	4608      	mov	r0, r1
 8001088:	4611      	mov	r1, r2
 800108a:	2200      	movs	r2, #0
 800108c:	6022      	str	r2, [r4, #0]
 800108e:	461a      	mov	r2, r3
 8001090:	f7ff f976 	bl	8000380 <_lseek>
 8001094:	1c43      	adds	r3, r0, #1
 8001096:	d102      	bne.n	800109e <_lseek_r+0x1e>
 8001098:	6823      	ldr	r3, [r4, #0]
 800109a:	b103      	cbz	r3, 800109e <_lseek_r+0x1e>
 800109c:	602b      	str	r3, [r5, #0]
 800109e:	bd38      	pop	{r3, r4, r5, pc}
 80010a0:	20000098 	.word	0x20000098

080010a4 <__swhatbuf_r>:
 80010a4:	b570      	push	{r4, r5, r6, lr}
 80010a6:	460e      	mov	r6, r1
 80010a8:	f9b1 100e 	ldrsh.w	r1, [r1, #14]
 80010ac:	2900      	cmp	r1, #0
 80010ae:	b096      	sub	sp, #88	; 0x58
 80010b0:	4614      	mov	r4, r2
 80010b2:	461d      	mov	r5, r3
 80010b4:	da07      	bge.n	80010c6 <__swhatbuf_r+0x22>
 80010b6:	2300      	movs	r3, #0
 80010b8:	602b      	str	r3, [r5, #0]
 80010ba:	89b3      	ldrh	r3, [r6, #12]
 80010bc:	061a      	lsls	r2, r3, #24
 80010be:	d410      	bmi.n	80010e2 <__swhatbuf_r+0x3e>
 80010c0:	f44f 6380 	mov.w	r3, #1024	; 0x400
 80010c4:	e00e      	b.n	80010e4 <__swhatbuf_r+0x40>
 80010c6:	466a      	mov	r2, sp
 80010c8:	f000 f8b2 	bl	8001230 <_fstat_r>
 80010cc:	2800      	cmp	r0, #0
 80010ce:	dbf2      	blt.n	80010b6 <__swhatbuf_r+0x12>
 80010d0:	9a01      	ldr	r2, [sp, #4]
 80010d2:	f402 4270 	and.w	r2, r2, #61440	; 0xf000
 80010d6:	f5a2 5300 	sub.w	r3, r2, #8192	; 0x2000
 80010da:	425a      	negs	r2, r3
 80010dc:	415a      	adcs	r2, r3
 80010de:	602a      	str	r2, [r5, #0]
 80010e0:	e7ee      	b.n	80010c0 <__swhatbuf_r+0x1c>
 80010e2:	2340      	movs	r3, #64	; 0x40
 80010e4:	2000      	movs	r0, #0
 80010e6:	6023      	str	r3, [r4, #0]
 80010e8:	b016      	add	sp, #88	; 0x58
 80010ea:	bd70      	pop	{r4, r5, r6, pc}

080010ec <__smakebuf_r>:
 80010ec:	898b      	ldrh	r3, [r1, #12]
 80010ee:	b573      	push	{r0, r1, r4, r5, r6, lr}
 80010f0:	079d      	lsls	r5, r3, #30
 80010f2:	4606      	mov	r6, r0
 80010f4:	460c      	mov	r4, r1
 80010f6:	d507      	bpl.n	8001108 <__smakebuf_r+0x1c>
 80010f8:	f104 0347 	add.w	r3, r4, #71	; 0x47
 80010fc:	6023      	str	r3, [r4, #0]
 80010fe:	6123      	str	r3, [r4, #16]
 8001100:	2301      	movs	r3, #1
 8001102:	6163      	str	r3, [r4, #20]
 8001104:	b002      	add	sp, #8
 8001106:	bd70      	pop	{r4, r5, r6, pc}
 8001108:	ab01      	add	r3, sp, #4
 800110a:	466a      	mov	r2, sp
 800110c:	f7ff ffca 	bl	80010a4 <__swhatbuf_r>
 8001110:	9900      	ldr	r1, [sp, #0]
 8001112:	4605      	mov	r5, r0
 8001114:	4630      	mov	r0, r6
 8001116:	f7ff faab 	bl	8000670 <_malloc_r>
 800111a:	b948      	cbnz	r0, 8001130 <__smakebuf_r+0x44>
 800111c:	f9b4 300c 	ldrsh.w	r3, [r4, #12]
 8001120:	059a      	lsls	r2, r3, #22
 8001122:	d4ef      	bmi.n	8001104 <__smakebuf_r+0x18>
 8001124:	f023 0303 	bic.w	r3, r3, #3
 8001128:	f043 0302 	orr.w	r3, r3, #2
 800112c:	81a3      	strh	r3, [r4, #12]
 800112e:	e7e3      	b.n	80010f8 <__smakebuf_r+0xc>
 8001130:	4b0d      	ldr	r3, [pc, #52]	; (8001168 <__smakebuf_r+0x7c>)
 8001132:	62b3      	str	r3, [r6, #40]	; 0x28
 8001134:	89a3      	ldrh	r3, [r4, #12]
 8001136:	6020      	str	r0, [r4, #0]
 8001138:	f043 0380 	orr.w	r3, r3, #128	; 0x80
 800113c:	81a3      	strh	r3, [r4, #12]
 800113e:	9b00      	ldr	r3, [sp, #0]
 8001140:	6163      	str	r3, [r4, #20]
 8001142:	9b01      	ldr	r3, [sp, #4]
 8001144:	6120      	str	r0, [r4, #16]
 8001146:	b15b      	cbz	r3, 8001160 <__smakebuf_r+0x74>
 8001148:	f9b4 100e 	ldrsh.w	r1, [r4, #14]
 800114c:	4630      	mov	r0, r6
 800114e:	f000 f881 	bl	8001254 <_isatty_r>
 8001152:	b128      	cbz	r0, 8001160 <__smakebuf_r+0x74>
 8001154:	89a3      	ldrh	r3, [r4, #12]
 8001156:	f023 0303 	bic.w	r3, r3, #3
 800115a:	f043 0301 	orr.w	r3, r3, #1
 800115e:	81a3      	strh	r3, [r4, #12]
 8001160:	89a3      	ldrh	r3, [r4, #12]
 8001162:	431d      	orrs	r5, r3
 8001164:	81a5      	strh	r5, [r4, #12]
 8001166:	e7cd      	b.n	8001104 <__smakebuf_r+0x18>
 8001168:	08000525 	.word	0x08000525

0800116c <__malloc_lock>:
 800116c:	4770      	bx	lr

0800116e <__malloc_unlock>:
 800116e:	4770      	bx	lr

08001170 <_free_r>:
 8001170:	b538      	push	{r3, r4, r5, lr}
 8001172:	4605      	mov	r5, r0
 8001174:	2900      	cmp	r1, #0
 8001176:	d045      	beq.n	8001204 <_free_r+0x94>
 8001178:	f851 3c04 	ldr.w	r3, [r1, #-4]
 800117c:	1f0c      	subs	r4, r1, #4
 800117e:	2b00      	cmp	r3, #0
 8001180:	bfb8      	it	lt
 8001182:	18e4      	addlt	r4, r4, r3
 8001184:	f7ff fff2 	bl	800116c <__malloc_lock>
 8001188:	4a1f      	ldr	r2, [pc, #124]	; (8001208 <_free_r+0x98>)
 800118a:	6813      	ldr	r3, [r2, #0]
 800118c:	4610      	mov	r0, r2
 800118e:	b933      	cbnz	r3, 800119e <_free_r+0x2e>
 8001190:	6063      	str	r3, [r4, #4]
 8001192:	6014      	str	r4, [r2, #0]
 8001194:	4628      	mov	r0, r5
 8001196:	e8bd 4038 	ldmia.w	sp!, {r3, r4, r5, lr}
 800119a:	f7ff bfe8 	b.w	800116e <__malloc_unlock>
 800119e:	42a3      	cmp	r3, r4
 80011a0:	d90c      	bls.n	80011bc <_free_r+0x4c>
 80011a2:	6821      	ldr	r1, [r4, #0]
 80011a4:	1862      	adds	r2, r4, r1
 80011a6:	4293      	cmp	r3, r2
 80011a8:	bf04      	itt	eq
 80011aa:	681a      	ldreq	r2, [r3, #0]
 80011ac:	685b      	ldreq	r3, [r3, #4]
 80011ae:	6063      	str	r3, [r4, #4]
 80011b0:	bf04      	itt	eq
 80011b2:	1852      	addeq	r2, r2, r1
 80011b4:	6022      	streq	r2, [r4, #0]
 80011b6:	6004      	str	r4, [r0, #0]
 80011b8:	e7ec      	b.n	8001194 <_free_r+0x24>
 80011ba:	4613      	mov	r3, r2
 80011bc:	685a      	ldr	r2, [r3, #4]
 80011be:	b10a      	cbz	r2, 80011c4 <_free_r+0x54>
 80011c0:	42a2      	cmp	r2, r4
 80011c2:	d9fa      	bls.n	80011ba <_free_r+0x4a>
 80011c4:	6819      	ldr	r1, [r3, #0]
 80011c6:	1858      	adds	r0, r3, r1
 80011c8:	42a0      	cmp	r0, r4
 80011ca:	d10b      	bne.n	80011e4 <_free_r+0x74>
 80011cc:	6820      	ldr	r0, [r4, #0]
 80011ce:	4401      	add	r1, r0
 80011d0:	1858      	adds	r0, r3, r1
 80011d2:	4282      	cmp	r2, r0
 80011d4:	6019      	str	r1, [r3, #0]
 80011d6:	d1dd      	bne.n	8001194 <_free_r+0x24>
 80011d8:	6810      	ldr	r0, [r2, #0]
 80011da:	6852      	ldr	r2, [r2, #4]
 80011dc:	605a      	str	r2, [r3, #4]
 80011de:	4401      	add	r1, r0
 80011e0:	6019      	str	r1, [r3, #0]
 80011e2:	e7d7      	b.n	8001194 <_free_r+0x24>
 80011e4:	d902      	bls.n	80011ec <_free_r+0x7c>
 80011e6:	230c      	movs	r3, #12
 80011e8:	602b      	str	r3, [r5, #0]
 80011ea:	e7d3      	b.n	8001194 <_free_r+0x24>
 80011ec:	6820      	ldr	r0, [r4, #0]
 80011ee:	1821      	adds	r1, r4, r0
 80011f0:	428a      	cmp	r2, r1
 80011f2:	bf04      	itt	eq
 80011f4:	6811      	ldreq	r1, [r2, #0]
 80011f6:	6852      	ldreq	r2, [r2, #4]
 80011f8:	6062      	str	r2, [r4, #4]
 80011fa:	bf04      	itt	eq
 80011fc:	1809      	addeq	r1, r1, r0
 80011fe:	6021      	streq	r1, [r4, #0]
 8001200:	605c      	str	r4, [r3, #4]
 8001202:	e7c7      	b.n	8001194 <_free_r+0x24>
 8001204:	bd38      	pop	{r3, r4, r5, pc}
 8001206:	bf00      	nop
 8001208:	20000090 	.word	0x20000090

0800120c <_read_r>:
 800120c:	b538      	push	{r3, r4, r5, lr}
 800120e:	4c07      	ldr	r4, [pc, #28]	; (800122c <_read_r+0x20>)
 8001210:	4605      	mov	r5, r0
 8001212:	4608      	mov	r0, r1
 8001214:	4611      	mov	r1, r2
 8001216:	2200      	movs	r2, #0
 8001218:	6022      	str	r2, [r4, #0]
 800121a:	461a      	mov	r2, r3
 800121c:	f7ff f850 	bl	80002c0 <_read>
 8001220:	1c43      	adds	r3, r0, #1
 8001222:	d102      	bne.n	800122a <_read_r+0x1e>
 8001224:	6823      	ldr	r3, [r4, #0]
 8001226:	b103      	cbz	r3, 800122a <_read_r+0x1e>
 8001228:	602b      	str	r3, [r5, #0]
 800122a:	bd38      	pop	{r3, r4, r5, pc}
 800122c:	20000098 	.word	0x20000098

08001230 <_fstat_r>:
 8001230:	b538      	push	{r3, r4, r5, lr}
 8001232:	4c07      	ldr	r4, [pc, #28]	; (8001250 <_fstat_r+0x20>)
 8001234:	2300      	movs	r3, #0
 8001236:	4605      	mov	r5, r0
 8001238:	4608      	mov	r0, r1
 800123a:	4611      	mov	r1, r2
 800123c:	6023      	str	r3, [r4, #0]
 800123e:	f7ff f884 	bl	800034a <_fstat>
 8001242:	1c43      	adds	r3, r0, #1
 8001244:	d102      	bne.n	800124c <_fstat_r+0x1c>
 8001246:	6823      	ldr	r3, [r4, #0]
 8001248:	b103      	cbz	r3, 800124c <_fstat_r+0x1c>
 800124a:	602b      	str	r3, [r5, #0]
 800124c:	bd38      	pop	{r3, r4, r5, pc}
 800124e:	bf00      	nop
 8001250:	20000098 	.word	0x20000098

08001254 <_isatty_r>:
 8001254:	b538      	push	{r3, r4, r5, lr}
 8001256:	4c06      	ldr	r4, [pc, #24]	; (8001270 <_isatty_r+0x1c>)
 8001258:	2300      	movs	r3, #0
 800125a:	4605      	mov	r5, r0
 800125c:	4608      	mov	r0, r1
 800125e:	6023      	str	r3, [r4, #0]
 8001260:	f7ff f883 	bl	800036a <_isatty>
 8001264:	1c43      	adds	r3, r0, #1
 8001266:	d102      	bne.n	800126e <_isatty_r+0x1a>
 8001268:	6823      	ldr	r3, [r4, #0]
 800126a:	b103      	cbz	r3, 800126e <_isatty_r+0x1a>
 800126c:	602b      	str	r3, [r5, #0]
 800126e:	bd38      	pop	{r3, r4, r5, pc}
 8001270:	20000098 	.word	0x20000098

08001274 <_init>:
 8001274:	b5f8      	push	{r3, r4, r5, r6, r7, lr}
 8001276:	bf00      	nop
 8001278:	bcf8      	pop	{r3, r4, r5, r6, r7}
 800127a:	bc08      	pop	{r3}
 800127c:	469e      	mov	lr, r3
 800127e:	4770      	bx	lr

08001280 <_fini>:
 8001280:	b5f8      	push	{r3, r4, r5, r6, r7, lr}
 8001282:	bf00      	nop
 8001284:	bcf8      	pop	{r3, r4, r5, r6, r7}
 8001286:	bc08      	pop	{r3}
 8001288:	469e      	mov	lr, r3
 800128a:	4770      	bx	lr
